
Enclave/inc.so:     file format elf64-x86-64


Disassembly of section .plt:

0000000000000ec0 <.plt>:
 ec0:	ff 35 42 a1 21 00    	pushq  0x21a142(%rip)        # 21b008 <_GLOBAL_OFFSET_TABLE_+0x8>
 ec6:	ff 25 44 a1 21 00    	jmpq   *0x21a144(%rip)        # 21b010 <_GLOBAL_OFFSET_TABLE_+0x10>
 ecc:	0f 1f 40 00          	nopl   0x0(%rax)

Disassembly of section .plt.got:

0000000000000ed0 <.plt.got>:
 ed0:	ff 25 0a a1 21 00    	jmpq   *0x21a10a(%rip)        # 21afe0 <_DYNAMIC+0x170>
 ed6:	66 90                	xchg   %ax,%ax
 ed8:	ff 25 12 a1 21 00    	jmpq   *0x21a112(%rip)        # 21aff0 <_DYNAMIC+0x180>
 ede:	66 90                	xchg   %ax,%ax

Disassembly of section .text:

0000000000000f00 <trts_access_version_dummy1>:
     f00:	48 8d 05 29 a1 21 00 	lea    0x21a129(%rip),%rax        # 21b030 <sgx_trts_version>
     f07:	c6 00 73             	movb   $0x73,(%rax)
     f0a:	c3                   	retq   
     f0b:	0f 1f 44 00 00       	nopl   0x0(%rax,%rax,1)

0000000000000f10 <tstdc_access_version_dummy1>:
     f10:	c6 05 49 a1 21 00 73 	movb   $0x73,0x21a149(%rip)        # 21b060 <sgx_tstdc_version>
     f17:	48 8d 05 42 a1 21 00 	lea    0x21a142(%rip),%rax        # 21b060 <sgx_tstdc_version>
     f1e:	c3                   	retq   
     f1f:	90                   	nop

0000000000000f20 <tcrypto_access_version_dummy1>:
     f20:	c6 05 79 a9 21 00 73 	movb   $0x73,0x21a979(%rip)        # 21b8a0 <sgx_tcrypto_version>
     f27:	48 8d 05 72 a9 21 00 	lea    0x21a972(%rip),%rax        # 21b8a0 <sgx_tcrypto_version>
     f2e:	c3                   	retq   
     f2f:	90                   	nop

0000000000000f30 <tservice_access_version_dummy1>:
     f30:	c6 05 a9 a9 21 00 73 	movb   $0x73,0x21a9a9(%rip)        # 21b8e0 <sgx_tservice_version>
     f37:	48 8d 05 a2 a9 21 00 	lea    0x21a9a2(%rip),%rax        # 21b8e0 <sgx_tservice_version>
     f3e:	c3                   	retq   

0000000000000f3f <ecall_strlen>:
     f3f:	48 8d 3d de a0 21 00 	lea    0x21a0de(%rip),%rdi        # 21b024 <buf+0x4>
     f46:	31 c0                	xor    %eax,%eax
     f48:	48 83 c9 ff          	or     $0xffffffffffffffff,%rcx
     f4c:	f2 ae                	repnz scas %es:(%rdi),%al
     f4e:	48 89 c8             	mov    %rcx,%rax
     f51:	48 f7 d0             	not    %rax
     f54:	48 ff c8             	dec    %rax
     f57:	c3                   	retq   

0000000000000f58 <ecall_memset>:
     f58:	48 8d 57 32          	lea    0x32(%rdi),%rdx
     f5c:	b9 32 00 00 00       	mov    $0x32,%ecx
     f61:	b0 41                	mov    $0x41,%al
     f63:	48 89 d7             	mov    %rdx,%rdi
     f66:	f3 aa                	rep stos %al,%es:(%rdi)
     f68:	c3                   	retq   

0000000000000f69 <my_init_chunk>:
     f69:	31 c0                	xor    %eax,%eax
     f6b:	48 8b 15 3e b0 21 00 	mov    0x21b03e(%rip),%rdx        # 21bfb0 <chunk>
     f72:	40 88 3c 02          	mov    %dil,(%rdx,%rax,1)
     f76:	48 ff c0             	inc    %rax
     f79:	48 83 f8 64          	cmp    $0x64,%rax
     f7d:	75 ec                	jne    f6b <my_init_chunk+0x2>
     f7f:	c3                   	retq   

0000000000000f80 <ecall_fill_heap>:
     f80:	53                   	push   %rbx
     f81:	89 fb                	mov    %edi,%ebx
     f83:	bf 64 00 00 00       	mov    $0x64,%edi
     f88:	e8 23 39 00 00       	callq  48b0 <dlmalloc>
     f8d:	0f be fb             	movsbl %bl,%edi
     f90:	48 89 05 19 b0 21 00 	mov    %rax,0x21b019(%rip)        # 21bfb0 <chunk>
     f97:	e8 cd ff ff ff       	callq  f69 <my_init_chunk>
     f9c:	5b                   	pop    %rbx
     f9d:	48 8b 3d 0c b0 21 00 	mov    0x21b00c(%rip),%rdi        # 21bfb0 <chunk>
     fa4:	e9 e7 52 00 00       	jmpq   6290 <dlfree>

0000000000000fa9 <ecall_edger8r>:
     fa9:	c3                   	retq   

0000000000000faa <ecall_leak_df>:
     faa:	85 ff                	test   %edi,%edi
     fac:	74 01                	je     faf <ecall_leak_df+0x5>
     fae:	fd                   	std    
     faf:	8a 02                	mov    (%rdx),%al
     fb1:	85 f6                	test   %esi,%esi
     fb3:	88 44 24 ff          	mov    %al,-0x1(%rsp)
     fb7:	74 01                	je     fba <ecall_leak_df+0x10>
     fb9:	fc                   	cld    
     fba:	c3                   	retq   

0000000000000fbb <sgx_ecall_leak_df>:
     fbb:	48 85 ff             	test   %rdi,%rdi
     fbe:	74 2e                	je     fee <sgx_ecall_leak_df+0x33>
     fc0:	53                   	push   %rbx
     fc1:	be 10 00 00 00       	mov    $0x10,%esi
     fc6:	48 89 fb             	mov    %rdi,%rbx
     fc9:	e8 22 03 00 00       	callq  12f0 <sgx_is_outside_enclave>
     fce:	85 c0                	test   %eax,%eax
     fd0:	75 07                	jne    fd9 <sgx_ecall_leak_df+0x1e>
     fd2:	b8 02 00 00 00       	mov    $0x2,%eax
     fd7:	eb 13                	jmp    fec <sgx_ecall_leak_df+0x31>
     fd9:	0f ae e8             	lfence 
     fdc:	48 8b 53 08          	mov    0x8(%rbx),%rdx
     fe0:	8b 73 04             	mov    0x4(%rbx),%esi
     fe3:	8b 3b                	mov    (%rbx),%edi
     fe5:	e8 c0 ff ff ff       	callq  faa <ecall_leak_df>
     fea:	31 c0                	xor    %eax,%eax
     fec:	5b                   	pop    %rbx
     fed:	c3                   	retq   
     fee:	b8 02 00 00 00       	mov    $0x2,%eax
     ff3:	c3                   	retq   

0000000000000ff4 <sgx_ecall_edger8r>:
     ff4:	48 85 ff             	test   %rdi,%rdi
     ff7:	55                   	push   %rbp
     ff8:	53                   	push   %rbx
     ff9:	51                   	push   %rcx
     ffa:	75 0a                	jne    1006 <sgx_ecall_edger8r+0x12>
     ffc:	bd 02 00 00 00       	mov    $0x2,%ebp
    1001:	e9 96 00 00 00       	jmpq   109c <sgx_ecall_edger8r+0xa8>
    1006:	be 08 00 00 00       	mov    $0x8,%esi
    100b:	48 89 fb             	mov    %rdi,%rbx
    100e:	e8 dd 02 00 00       	callq  12f0 <sgx_is_outside_enclave>
    1013:	85 c0                	test   %eax,%eax
    1015:	74 e5                	je     ffc <sgx_ecall_edger8r+0x8>
    1017:	0f ae e8             	lfence 
    101a:	48 8b 2b             	mov    (%rbx),%rbp
    101d:	48 85 ed             	test   %rbp,%rbp
    1020:	75 0c                	jne    102e <sgx_ecall_edger8r+0x3a>
    1022:	31 db                	xor    %ebx,%ebx
    1024:	48 85 ed             	test   %rbp,%rbp
    1027:	0f ae e8             	lfence 
    102a:	75 15                	jne    1041 <sgx_ecall_edger8r+0x4d>
    102c:	eb 31                	jmp    105f <sgx_ecall_edger8r+0x6b>
    102e:	be 64 00 00 00       	mov    $0x64,%esi
    1033:	48 89 ef             	mov    %rbp,%rdi
    1036:	e8 b5 02 00 00       	callq  12f0 <sgx_is_outside_enclave>
    103b:	85 c0                	test   %eax,%eax
    103d:	74 bd                	je     ffc <sgx_ecall_edger8r+0x8>
    103f:	eb e1                	jmp    1022 <sgx_ecall_edger8r+0x2e>
    1041:	bf 64 00 00 00       	mov    $0x64,%edi
    1046:	e8 65 38 00 00       	callq  48b0 <dlmalloc>
    104b:	48 85 c0             	test   %rax,%rax
    104e:	48 89 c3             	mov    %rax,%rbx
    1051:	74 40                	je     1093 <sgx_ecall_edger8r+0x9f>
    1053:	b9 19 00 00 00       	mov    $0x19,%ecx
    1058:	31 c0                	xor    %eax,%eax
    105a:	48 89 df             	mov    %rbx,%rdi
    105d:	f3 ab                	rep stos %eax,%es:(%rdi)
    105f:	48 89 df             	mov    %rbx,%rdi
    1062:	e8 42 ff ff ff       	callq  fa9 <ecall_edger8r>
    1067:	48 85 db             	test   %rbx,%rbx
    106a:	74 2e                	je     109a <sgx_ecall_edger8r+0xa6>
    106c:	48 89 ef             	mov    %rbp,%rdi
    106f:	b9 64 00 00 00       	mov    $0x64,%ecx
    1074:	48 89 da             	mov    %rbx,%rdx
    1077:	be 64 00 00 00       	mov    $0x64,%esi
    107c:	31 ed                	xor    %ebp,%ebp
    107e:	e8 2d 6b 00 00       	callq  7bb0 <memcpy_s>
    1083:	48 89 df             	mov    %rbx,%rdi
    1086:	85 c0                	test   %eax,%eax
    1088:	40 0f 95 c5          	setne  %bpl
    108c:	e8 ff 51 00 00       	callq  6290 <dlfree>
    1091:	eb 09                	jmp    109c <sgx_ecall_edger8r+0xa8>
    1093:	bd 03 00 00 00       	mov    $0x3,%ebp
    1098:	eb 02                	jmp    109c <sgx_ecall_edger8r+0xa8>
    109a:	31 ed                	xor    %ebp,%ebp
    109c:	89 e8                	mov    %ebp,%eax
    109e:	5a                   	pop    %rdx
    109f:	5b                   	pop    %rbx
    10a0:	5d                   	pop    %rbp
    10a1:	c3                   	retq   

00000000000010a2 <sgx_ecall_fill_heap>:
    10a2:	48 85 ff             	test   %rdi,%rdi
    10a5:	74 28                	je     10cf <sgx_ecall_fill_heap+0x2d>
    10a7:	53                   	push   %rbx
    10a8:	be 01 00 00 00       	mov    $0x1,%esi
    10ad:	48 89 fb             	mov    %rdi,%rbx
    10b0:	e8 3b 02 00 00       	callq  12f0 <sgx_is_outside_enclave>
    10b5:	85 c0                	test   %eax,%eax
    10b7:	75 07                	jne    10c0 <sgx_ecall_fill_heap+0x1e>
    10b9:	b8 02 00 00 00       	mov    $0x2,%eax
    10be:	eb 0d                	jmp    10cd <sgx_ecall_fill_heap+0x2b>
    10c0:	0f ae e8             	lfence 
    10c3:	0f be 3b             	movsbl (%rbx),%edi
    10c6:	e8 b5 fe ff ff       	callq  f80 <ecall_fill_heap>
    10cb:	31 c0                	xor    %eax,%eax
    10cd:	5b                   	pop    %rbx
    10ce:	c3                   	retq   
    10cf:	b8 02 00 00 00       	mov    $0x2,%eax
    10d4:	c3                   	retq   

00000000000010d5 <sgx_ecall_memset>:
    10d5:	48 85 ff             	test   %rdi,%rdi
    10d8:	74 28                	je     1102 <sgx_ecall_memset+0x2d>
    10da:	53                   	push   %rbx
    10db:	be 08 00 00 00       	mov    $0x8,%esi
    10e0:	48 89 fb             	mov    %rdi,%rbx
    10e3:	e8 08 02 00 00       	callq  12f0 <sgx_is_outside_enclave>
    10e8:	85 c0                	test   %eax,%eax
    10ea:	75 07                	jne    10f3 <sgx_ecall_memset+0x1e>
    10ec:	b8 02 00 00 00       	mov    $0x2,%eax
    10f1:	eb 0d                	jmp    1100 <sgx_ecall_memset+0x2b>
    10f3:	0f ae e8             	lfence 
    10f6:	48 8b 3b             	mov    (%rbx),%rdi
    10f9:	e8 5a fe ff ff       	callq  f58 <ecall_memset>
    10fe:	31 c0                	xor    %eax,%eax
    1100:	5b                   	pop    %rbx
    1101:	c3                   	retq   
    1102:	b8 02 00 00 00       	mov    $0x2,%eax
    1107:	c3                   	retq   

0000000000001108 <sgx_ecall_strlen>:
    1108:	48 85 ff             	test   %rdi,%rdi
    110b:	74 27                	je     1134 <sgx_ecall_strlen+0x2c>
    110d:	53                   	push   %rbx
    110e:	be 04 00 00 00       	mov    $0x4,%esi
    1113:	48 89 fb             	mov    %rdi,%rbx
    1116:	e8 d5 01 00 00       	callq  12f0 <sgx_is_outside_enclave>
    111b:	85 c0                	test   %eax,%eax
    111d:	75 07                	jne    1126 <sgx_ecall_strlen+0x1e>
    111f:	b8 02 00 00 00       	mov    $0x2,%eax
    1124:	eb 0c                	jmp    1132 <sgx_ecall_strlen+0x2a>
    1126:	0f ae e8             	lfence 
    1129:	e8 11 fe ff ff       	callq  f3f <ecall_strlen>
    112e:	89 03                	mov    %eax,(%rbx)
    1130:	31 c0                	xor    %eax,%eax
    1132:	5b                   	pop    %rbx
    1133:	c3                   	retq   
    1134:	b8 02 00 00 00       	mov    $0x2,%eax
    1139:	c3                   	retq   
    113a:	66 0f 1f 44 00 00    	nopw   0x0(%rax,%rax,1)

0000000000001140 <init_optimized_libs>:
    1140:	55                   	push   %rbp
    1141:	53                   	push   %rbx
    1142:	48 83 ec 08          	sub    $0x8,%rsp
    1146:	48 8d 05 b7 a7 21 00 	lea    0x21a7b7(%rip),%rax        # 21b904 <g_enclave_state>
    114d:	83 38 01             	cmpl   $0x1,(%rax)
    1150:	0f 85 fa 00 00 00    	jne    1250 <init_optimized_libs+0x110>
    1156:	48 b8 00 00 00 00 00 	movabs $0xff00000000000000,%rax
    115d:	00 00 ff 
    1160:	48 85 c7             	test   %rax,%rdi
    1163:	0f 85 f7 00 00 00    	jne    1260 <init_optimized_libs+0x120>
    1169:	48 f7 c7 00 fe ff ff 	test   $0xfffffffffffffe00,%rdi
    1170:	0f 84 da 00 00 00    	je     1250 <init_optimized_libs+0x110>
    1176:	40 f6 c7 20          	test   $0x20,%dil
    117a:	74 10                	je     118c <init_optimized_libs+0x4c>
    117c:	48 89 f8             	mov    %rdi,%rax
    117f:	83 e0 1f             	and    $0x1f,%eax
    1182:	48 83 f8 1f          	cmp    $0x1f,%rax
    1186:	0f 85 c4 00 00 00    	jne    1250 <init_optimized_libs+0x110>
    118c:	40 f6 c7 40          	test   $0x40,%dil
    1190:	74 10                	je     11a2 <init_optimized_libs+0x62>
    1192:	48 89 f8             	mov    %rdi,%rax
    1195:	83 e0 3f             	and    $0x3f,%eax
    1198:	48 83 f8 3f          	cmp    $0x3f,%rax
    119c:	0f 85 ae 00 00 00    	jne    1250 <init_optimized_libs+0x110>
    11a2:	40 f6 c7 80          	test   $0x80,%dil
    11a6:	74 10                	je     11b8 <init_optimized_libs+0x78>
    11a8:	48 89 f8             	mov    %rdi,%rax
    11ab:	83 e0 7f             	and    $0x7f,%eax
    11ae:	48 83 f8 7f          	cmp    $0x7f,%rax
    11b2:	0f 85 98 00 00 00    	jne    1250 <init_optimized_libs+0x110>
    11b8:	f7 c7 00 01 00 00    	test   $0x100,%edi
    11be:	74 10                	je     11d0 <init_optimized_libs+0x90>
    11c0:	40 0f b6 c7          	movzbl %dil,%eax
    11c4:	48 3d ff 00 00 00    	cmp    $0xff,%rax
    11ca:	0f 85 80 00 00 00    	jne    1250 <init_optimized_libs+0x110>
    11d0:	f7 c7 00 02 00 00    	test   $0x200,%edi
    11d6:	74 10                	je     11e8 <init_optimized_libs+0xa8>
    11d8:	48 89 f8             	mov    %rdi,%rax
    11db:	25 ff 01 00 00       	and    $0x1ff,%eax
    11e0:	48 3d ff 01 00 00    	cmp    $0x1ff,%rax
    11e6:	75 68                	jne    1250 <init_optimized_libs+0x110>
    11e8:	f7 c7 00 04 00 00    	test   $0x400,%edi
    11ee:	74 10                	je     1200 <init_optimized_libs+0xc0>
    11f0:	48 89 f8             	mov    %rdi,%rax
    11f3:	25 ff 03 00 00       	and    $0x3ff,%eax
    11f8:	48 3d ff 03 00 00    	cmp    $0x3ff,%rax
    11fe:	75 50                	jne    1250 <init_optimized_libs+0x110>
    1200:	48 89 d0             	mov    %rdx,%rax
    1203:	83 e0 06             	and    $0x6,%eax
    1206:	48 83 f8 06          	cmp    $0x6,%rax
    120a:	74 6c                	je     1278 <init_optimized_libs+0x138>
    120c:	48 b8 ff 7f 12 86 08 	movabs $0xfffe200886127fff,%rax
    1213:	20 fe ff 
    1216:	48 21 c7             	and    %rax,%rdi
    1219:	48 8d 2d 28 9c 21 00 	lea    0x219c28(%rip),%rbp        # 21ae48 <g_cpu_feature_indicator>
    1220:	48 89 f3             	mov    %rsi,%rbx
    1223:	48 89 7d 00          	mov    %rdi,0x0(%rbp)
    1227:	e8 74 67 00 00       	callq  79a0 <sgx_init_string_lib>
    122c:	85 c0                	test   %eax,%eax
    122e:	75 20                	jne    1250 <init_optimized_libs+0x110>
    1230:	48 8b 7d 00          	mov    0x0(%rbp),%rdi
    1234:	48 89 de             	mov    %rbx,%rsi
    1237:	e8 e4 53 01 00       	callq  16620 <sgx_init_crypto_lib>
    123c:	85 c0                	test   %eax,%eax
    123e:	0f 95 c0             	setne  %al
    1241:	48 83 c4 08          	add    $0x8,%rsp
    1245:	0f b6 c0             	movzbl %al,%eax
    1248:	f7 d8                	neg    %eax
    124a:	5b                   	pop    %rbx
    124b:	5d                   	pop    %rbp
    124c:	c3                   	retq   
    124d:	0f 1f 00             	nopl   (%rax)
    1250:	48 83 c4 08          	add    $0x8,%rsp
    1254:	b8 ff ff ff ff       	mov    $0xffffffff,%eax
    1259:	5b                   	pop    %rbx
    125a:	5d                   	pop    %rbp
    125b:	c3                   	retq   
    125c:	0f 1f 40 00          	nopl   0x0(%rax)
    1260:	48 b8 ff ff ff ff ff 	movabs $0xffffffffffffff,%rax
    1267:	ff ff 00 
    126a:	48 21 c7             	and    %rax,%rdi
    126d:	e9 f7 fe ff ff       	jmpq   1169 <init_optimized_libs+0x29>
    1272:	66 0f 1f 44 00 00    	nopw   0x0(%rax,%rax,1)
    1278:	81 e2 e0 00 00 00    	and    $0xe0,%edx
    127e:	48 81 fa e0 00 00 00 	cmp    $0xe0,%rdx
    1285:	74 92                	je     1219 <init_optimized_libs+0xd9>
    1287:	48 b8 ff ff ff b6 18 	movabs $0xfffee018b6ffffff,%rax
    128e:	e0 fe ff 
    1291:	48 21 c7             	and    %rax,%rdi
    1294:	e9 80 ff ff ff       	jmpq   1219 <init_optimized_libs+0xd9>
    1299:	0f 1f 80 00 00 00 00 	nopl   0x0(%rax)

00000000000012a0 <sgx_is_within_enclave>:
    12a0:	48 8d 05 19 68 01 00 	lea    0x16819(%rip),%rax        # 17ac0 <g_global_data>
    12a7:	48 8b 15 22 9d 21 00 	mov    0x219d22(%rip),%rdx        # 21afd0 <_DYNAMIC+0x160>
    12ae:	48 85 f6             	test   %rsi,%rsi
    12b1:	48 8b 00             	mov    (%rax),%rax
    12b4:	4c 8d 44 02 ff       	lea    -0x1(%rdx,%rax,1),%r8
    12b9:	74 25                	je     12e0 <sgx_is_within_enclave+0x40>
    12bb:	48 8d 4c 37 ff       	lea    -0x1(%rdi,%rsi,1),%rcx
    12c0:	48 39 cf             	cmp    %rcx,%rdi
    12c3:	0f 96 c0             	setbe  %al
    12c6:	48 39 d7             	cmp    %rdx,%rdi
    12c9:	0f 93 c2             	setae  %dl
    12cc:	21 d0                	and    %edx,%eax
    12ce:	31 d2                	xor    %edx,%edx
    12d0:	4c 39 c1             	cmp    %r8,%rcx
    12d3:	0f 96 c2             	setbe  %dl
    12d6:	21 d0                	and    %edx,%eax
    12d8:	c3                   	retq   
    12d9:	0f 1f 80 00 00 00 00 	nopl   0x0(%rax)
    12e0:	48 89 f9             	mov    %rdi,%rcx
    12e3:	b8 01 00 00 00       	mov    $0x1,%eax
    12e8:	eb dc                	jmp    12c6 <sgx_is_within_enclave+0x26>
    12ea:	66 0f 1f 44 00 00    	nopw   0x0(%rax,%rax,1)

00000000000012f0 <sgx_is_outside_enclave>:
    12f0:	48 8d 05 c9 67 01 00 	lea    0x167c9(%rip),%rax        # 17ac0 <g_global_data>
    12f7:	48 85 f6             	test   %rsi,%rsi
    12fa:	48 8b 00             	mov    (%rax),%rax
    12fd:	74 11                	je     1310 <sgx_is_outside_enclave+0x20>
    12ff:	48 8d 54 37 ff       	lea    -0x1(%rdi,%rsi,1),%rdx
    1304:	48 39 d7             	cmp    %rdx,%rdi
    1307:	76 0a                	jbe    1313 <sgx_is_outside_enclave+0x23>
    1309:	31 c0                	xor    %eax,%eax
    130b:	c3                   	retq   
    130c:	0f 1f 40 00          	nopl   0x0(%rax)
    1310:	48 89 fa             	mov    %rdi,%rdx
    1313:	48 8b 0d b6 9c 21 00 	mov    0x219cb6(%rip),%rcx        # 21afd0 <_DYNAMIC+0x160>
    131a:	48 8d 44 08 ff       	lea    -0x1(%rax,%rcx,1),%rax
    131f:	48 39 c7             	cmp    %rax,%rdi
    1322:	40 0f 97 c6          	seta   %sil
    1326:	48 39 d1             	cmp    %rdx,%rcx
    1329:	0f 97 c0             	seta   %al
    132c:	09 f0                	or     %esi,%eax
    132e:	0f b6 c0             	movzbl %al,%eax
    1331:	c3                   	retq   
    1332:	66 2e 0f 1f 84 00 00 	nopw   %cs:0x0(%rax,%rax,1)
    1339:	00 00 00 
    133c:	0f 1f 40 00          	nopl   0x0(%rax)

0000000000001340 <sgx_ocalloc>:
    1340:	53                   	push   %rbx
    1341:	48 89 fb             	mov    %rdi,%rbx
    1344:	48 83 ec 10          	sub    $0x10,%rsp
    1348:	e8 61 5c 01 00       	callq  16fae <get_thread_data>
    134d:	48 8b 70 20          	mov    0x20(%rax),%rsi
    1351:	48 8d 3d 68 67 01 00 	lea    0x16768(%rip),%rdi        # 17ac0 <g_global_data>
    1358:	48 8b 96 90 00 00 00 	mov    0x90(%rsi),%rdx
    135f:	48 8b 0f             	mov    (%rdi),%rcx
    1362:	48 8d 42 07          	lea    0x7(%rdx),%rax
    1366:	48 39 c2             	cmp    %rax,%rdx
    1369:	77 3a                	ja     13a5 <sgx_ocalloc+0x65>
    136b:	4c 8b 05 5e 9c 21 00 	mov    0x219c5e(%rip),%r8        # 21afd0 <_DYNAMIC+0x160>
    1372:	49 8d 4c 08 ff       	lea    -0x1(%r8,%rcx,1),%rcx
    1377:	48 39 ca             	cmp    %rcx,%rdx
    137a:	77 05                	ja     1381 <sgx_ocalloc+0x41>
    137c:	49 39 c0             	cmp    %rax,%r8
    137f:	76 24                	jbe    13a5 <sgx_ocalloc+0x65>
    1381:	48 39 da             	cmp    %rbx,%rdx
    1384:	72 1f                	jb     13a5 <sgx_ocalloc+0x65>
    1386:	48 89 d1             	mov    %rdx,%rcx
    1389:	4c 8b 0f             	mov    (%rdi),%r9
    138c:	48 29 d9             	sub    %rbx,%rcx
    138f:	48 89 c8             	mov    %rcx,%rax
    1392:	48 83 e0 f0          	and    $0xfffffffffffffff0,%rax
    1396:	48 85 db             	test   %rbx,%rbx
    1399:	74 15                	je     13b0 <sgx_ocalloc+0x70>
    139b:	48 8d 7c 18 ff       	lea    -0x1(%rax,%rbx,1),%rdi
    13a0:	48 39 f8             	cmp    %rdi,%rax
    13a3:	76 0e                	jbe    13b3 <sgx_ocalloc+0x73>
    13a5:	e8 00 5f 01 00       	callq  172aa <abort>
    13aa:	66 0f 1f 44 00 00    	nopw   0x0(%rax,%rax,1)
    13b0:	48 89 c7             	mov    %rax,%rdi
    13b3:	4f 8d 4c 08 ff       	lea    -0x1(%r8,%r9,1),%r9
    13b8:	4c 39 c8             	cmp    %r9,%rax
    13bb:	77 05                	ja     13c2 <sgx_ocalloc+0x82>
    13bd:	49 39 f8             	cmp    %rdi,%r8
    13c0:	76 e3                	jbe    13a5 <sgx_ocalloc+0x65>
    13c2:	48 83 ea 01          	sub    $0x1,%rdx
    13c6:	48 81 e2 00 f0 ff ff 	and    $0xfffffffffffff000,%rdx
    13cd:	48 81 e1 00 f0 ff ff 	and    $0xfffffffffffff000,%rcx
    13d4:	74 cf                	je     13a5 <sgx_ocalloc+0x65>
    13d6:	48 89 54 24 08       	mov    %rdx,0x8(%rsp)
    13db:	48 8b 54 24 08       	mov    0x8(%rsp),%rdx
    13e0:	48 39 d1             	cmp    %rdx,%rcx
    13e3:	77 32                	ja     1417 <sgx_ocalloc+0xd7>
    13e5:	0f 1f 00             	nopl   (%rax)
    13e8:	48 8b 54 24 08       	mov    0x8(%rsp),%rdx
    13ed:	48 89 96 90 00 00 00 	mov    %rdx,0x90(%rsi)
    13f4:	48 8b 54 24 08       	mov    0x8(%rsp),%rdx
    13f9:	c6 02 00             	movb   $0x0,(%rdx)
    13fc:	48 8b 54 24 08       	mov    0x8(%rsp),%rdx
    1401:	48 81 ea 00 10 00 00 	sub    $0x1000,%rdx
    1408:	48 89 54 24 08       	mov    %rdx,0x8(%rsp)
    140d:	48 8b 54 24 08       	mov    0x8(%rsp),%rdx
    1412:	48 39 d1             	cmp    %rdx,%rcx
    1415:	76 d1                	jbe    13e8 <sgx_ocalloc+0xa8>
    1417:	48 89 86 90 00 00 00 	mov    %rax,0x90(%rsi)
    141e:	48 83 c4 10          	add    $0x10,%rsp
    1422:	5b                   	pop    %rbx
    1423:	c3                   	retq   
    1424:	66 2e 0f 1f 84 00 00 	nopw   %cs:0x0(%rax,%rax,1)
    142b:	00 00 00 
    142e:	66 90                	xchg   %ax,%ax

0000000000001430 <sgx_ocfree>:
    1430:	48 83 ec 08          	sub    $0x8,%rsp
    1434:	e8 75 5b 01 00       	callq  16fae <get_thread_data>
    1439:	48 8b 48 20          	mov    0x20(%rax),%rcx
    143d:	48 8b 40 08          	mov    0x8(%rax),%rax
    1441:	48 8d 15 78 66 01 00 	lea    0x16678(%rip),%rdx        # 17ac0 <g_global_data>
    1448:	48 8b 40 e8          	mov    -0x18(%rax),%rax
    144c:	48 8b 32             	mov    (%rdx),%rsi
    144f:	48 8d 50 07          	lea    0x7(%rax),%rdx
    1453:	48 39 d0             	cmp    %rdx,%rax
    1456:	77 16                	ja     146e <sgx_ocfree+0x3e>
    1458:	48 8b 3d 71 9b 21 00 	mov    0x219b71(%rip),%rdi        # 21afd0 <_DYNAMIC+0x160>
    145f:	48 8d 74 3e ff       	lea    -0x1(%rsi,%rdi,1),%rsi
    1464:	48 39 f0             	cmp    %rsi,%rax
    1467:	77 0f                	ja     1478 <sgx_ocfree+0x48>
    1469:	48 39 d7             	cmp    %rdx,%rdi
    146c:	77 0a                	ja     1478 <sgx_ocfree+0x48>
    146e:	e8 37 5e 01 00       	callq  172aa <abort>
    1473:	0f 1f 44 00 00       	nopl   0x0(%rax,%rax,1)
    1478:	48 89 81 90 00 00 00 	mov    %rax,0x90(%rcx)
    147f:	48 83 c4 08          	add    $0x8,%rsp
    1483:	c3                   	retq   
    1484:	66 2e 0f 1f 84 00 00 	nopw   %cs:0x0(%rax,%rax,1)
    148b:	00 00 00 
    148e:	66 90                	xchg   %ax,%ax

0000000000001490 <sgx_read_rand>:
    1490:	41 54                	push   %r12
    1492:	55                   	push   %rbp
    1493:	53                   	push   %rbx
    1494:	48 83 ec 10          	sub    $0x10,%rsp
    1498:	64 48 8b 04 25 28 00 	mov    %fs:0x28,%rax
    149f:	00 00 
    14a1:	48 89 44 24 08       	mov    %rax,0x8(%rsp)
    14a6:	31 c0                	xor    %eax,%eax
    14a8:	48 85 ff             	test   %rdi,%rdi
    14ab:	74 08                	je     14b5 <sgx_read_rand+0x25>
    14ad:	48 85 f6             	test   %rsi,%rsi
    14b0:	48 89 f5             	mov    %rsi,%rbp
    14b3:	75 2b                	jne    14e0 <sgx_read_rand+0x50>
    14b5:	b8 02 00 00 00       	mov    $0x2,%eax
    14ba:	48 8b 4c 24 08       	mov    0x8(%rsp),%rcx
    14bf:	64 48 33 0c 25 28 00 	xor    %fs:0x28,%rcx
    14c6:	00 00 
    14c8:	0f 85 eb 00 00 00    	jne    15b9 <sgx_read_rand+0x129>
    14ce:	48 83 c4 10          	add    $0x10,%rsp
    14d2:	5b                   	pop    %rbx
    14d3:	5d                   	pop    %rbp
    14d4:	41 5c                	pop    %r12
    14d6:	c3                   	retq   
    14d7:	66 0f 1f 84 00 00 00 	nopw   0x0(%rax,%rax,1)
    14de:	00 00 
    14e0:	48 8d 0d d9 65 01 00 	lea    0x165d9(%rip),%rcx        # 17ac0 <g_global_data>
    14e7:	48 8b 15 e2 9a 21 00 	mov    0x219ae2(%rip),%rdx        # 21afd0 <_DYNAMIC+0x160>
    14ee:	48 8d 44 2f ff       	lea    -0x1(%rdi,%rbp,1),%rax
    14f3:	48 89 fb             	mov    %rdi,%rbx
    14f6:	48 8b 31             	mov    (%rcx),%rsi
    14f9:	48 8d 74 32 ff       	lea    -0x1(%rdx,%rsi,1),%rsi
    14fe:	48 39 c6             	cmp    %rax,%rsi
    1501:	40 0f 93 c7          	setae  %dil
    1505:	48 39 c3             	cmp    %rax,%rbx
    1508:	40 0f 96 c6          	setbe  %sil
    150c:	40 84 f7             	test   %sil,%dil
    150f:	74 57                	je     1568 <sgx_read_rand+0xd8>
    1511:	48 39 d3             	cmp    %rdx,%rbx
    1514:	72 52                	jb     1568 <sgx_read_rand+0xd8>
    1516:	4c 8d 64 24 04       	lea    0x4(%rsp),%r12
    151b:	c7 44 24 04 00 00 00 	movl   $0x0,0x4(%rsp)
    1522:	00 
    1523:	4c 89 e7             	mov    %r12,%rdi
    1526:	e8 60 5d 01 00       	callq  1728b <do_rdrand>
    152b:	85 c0                	test   %eax,%eax
    152d:	74 2c                	je     155b <sgx_read_rand+0xcb>
    152f:	48 83 fd 03          	cmp    $0x3,%rbp
    1533:	76 5b                	jbe    1590 <sgx_read_rand+0x100>
    1535:	48 89 df             	mov    %rbx,%rdi
    1538:	ba 04 00 00 00       	mov    $0x4,%edx
    153d:	4c 89 e6             	mov    %r12,%rsi
    1540:	e8 3b 62 00 00       	callq  7780 <memcpy>
    1545:	48 83 c3 04          	add    $0x4,%rbx
    1549:	48 83 ed 04          	sub    $0x4,%rbp
    154d:	74 4f                	je     159e <sgx_read_rand+0x10e>
    154f:	4c 89 e7             	mov    %r12,%rdi
    1552:	e8 34 5d 01 00       	callq  1728b <do_rdrand>
    1557:	85 c0                	test   %eax,%eax
    1559:	75 d4                	jne    152f <sgx_read_rand+0x9f>
    155b:	b8 01 00 00 00       	mov    $0x1,%eax
    1560:	e9 55 ff ff ff       	jmpq   14ba <sgx_read_rand+0x2a>
    1565:	0f 1f 00             	nopl   (%rax)
    1568:	48 39 c3             	cmp    %rax,%rbx
    156b:	48 8b 09             	mov    (%rcx),%rcx
    156e:	0f 87 41 ff ff ff    	ja     14b5 <sgx_read_rand+0x25>
    1574:	48 8d 4c 0a ff       	lea    -0x1(%rdx,%rcx,1),%rcx
    1579:	48 39 cb             	cmp    %rcx,%rbx
    157c:	77 98                	ja     1516 <sgx_read_rand+0x86>
    157e:	48 39 c2             	cmp    %rax,%rdx
    1581:	0f 86 2e ff ff ff    	jbe    14b5 <sgx_read_rand+0x25>
    1587:	eb 8d                	jmp    1516 <sgx_read_rand+0x86>
    1589:	0f 1f 80 00 00 00 00 	nopl   0x0(%rax)
    1590:	48 89 ea             	mov    %rbp,%rdx
    1593:	4c 89 e6             	mov    %r12,%rsi
    1596:	48 89 df             	mov    %rbx,%rdi
    1599:	e8 e2 61 00 00       	callq  7780 <memcpy>
    159e:	b9 04 00 00 00       	mov    $0x4,%ecx
    15a3:	31 d2                	xor    %edx,%edx
    15a5:	be 04 00 00 00       	mov    $0x4,%esi
    15aa:	4c 89 e7             	mov    %r12,%rdi
    15ad:	e8 0e 62 00 00       	callq  77c0 <memset_s>
    15b2:	31 c0                	xor    %eax,%eax
    15b4:	e9 01 ff ff ff       	jmpq   14ba <sgx_read_rand+0x2a>
    15b9:	e8 d2 2a 00 00       	callq  4090 <__stack_chk_fail>
    15be:	66 90                	xchg   %ax,%ax

00000000000015c0 <check_static_stack_canary>:
    15c0:	48 8d 05 71 98 21 00 	lea    0x219871(%rip),%rax        # 21ae38 <__intel_security_cookie>
    15c7:	48 8b 00             	mov    (%rax),%rax
    15ca:	48 39 87 58 fd fe ff 	cmp    %rax,-0x102a8(%rdi)
    15d1:	0f 95 c0             	setne  %al
    15d4:	0f b6 c0             	movzbl %al,%eax
    15d7:	f7 d8                	neg    %eax
    15d9:	c3                   	retq   
    15da:	66 0f 1f 44 00 00    	nopw   0x0(%rax,%rax,1)

00000000000015e0 <random_stack_notify_gdb>:
    15e0:	f3 c3                	repz retq 
    15e2:	66 2e 0f 1f 84 00 00 	nopw   %cs:0x0(%rax,%rax,1)
    15e9:	00 00 00 
    15ec:	0f 1f 40 00          	nopl   0x0(%rax)

00000000000015f0 <_ZL25check_dynamic_entry_rangePvmtmP24dynamic_flags_attributes>:
    15f0:	8d 42 ff             	lea    -0x1(%rdx),%eax
    15f3:	66 83 f8 11          	cmp    $0x11,%ax
    15f7:	76 07                	jbe    1600 <_ZL25check_dynamic_entry_rangePvmtmP24dynamic_flags_attributes+0x10>
    15f9:	b8 ff ff ff ff       	mov    $0xffffffff,%eax
    15fe:	c3                   	retq   
    15ff:	90                   	nop
    1600:	41 57                	push   %r15
    1602:	41 56                	push   %r14
    1604:	41 55                	push   %r13
    1606:	41 54                	push   %r12
    1608:	55                   	push   %rbp
    1609:	53                   	push   %rbx
    160a:	48 83 ec 08          	sub    $0x8,%rsp
    160e:	48 8d 2d ab 64 01 00 	lea    0x164ab(%rip),%rbp        # 17ac0 <g_global_data>
    1615:	8b 85 18 01 00 00    	mov    0x118(%rbp),%eax
    161b:	85 c0                	test   %eax,%eax
    161d:	74 3c                	je     165b <_ZL25check_dynamic_entry_rangePvmtmP24dynamic_flags_attributes+0x6b>
    161f:	0f b7 85 20 01 00 00 	movzwl 0x120(%rbp),%eax
    1626:	66 39 c2             	cmp    %ax,%dx
    1629:	74 44                	je     166f <_ZL25check_dynamic_entry_rangePvmtmP24dynamic_flags_attributes+0x7f>
    162b:	41 89 d1             	mov    %edx,%r9d
    162e:	31 d2                	xor    %edx,%edx
    1630:	eb 1c                	jmp    164e <_ZL25check_dynamic_entry_rangePvmtmP24dynamic_flags_attributes+0x5e>
    1632:	66 0f 1f 44 00 00    	nopw   0x0(%rax,%rax,1)
    1638:	89 d3                	mov    %edx,%ebx
    163a:	48 8d 43 09          	lea    0x9(%rbx),%rax
    163e:	48 c1 e0 05          	shl    $0x5,%rax
    1642:	48 01 e8             	add    %rbp,%rax
    1645:	0f b7 00             	movzwl (%rax),%eax
    1648:	66 41 39 c1          	cmp    %ax,%r9w
    164c:	74 2a                	je     1678 <_ZL25check_dynamic_entry_rangePvmtmP24dynamic_flags_attributes+0x88>
    164e:	8b 85 18 01 00 00    	mov    0x118(%rbp),%eax
    1654:	83 c2 01             	add    $0x1,%edx
    1657:	39 d0                	cmp    %edx,%eax
    1659:	77 dd                	ja     1638 <_ZL25check_dynamic_entry_rangePvmtmP24dynamic_flags_attributes+0x48>
    165b:	b8 ff ff ff ff       	mov    $0xffffffff,%eax
    1660:	48 83 c4 08          	add    $0x8,%rsp
    1664:	5b                   	pop    %rbx
    1665:	5d                   	pop    %rbp
    1666:	41 5c                	pop    %r12
    1668:	41 5d                	pop    %r13
    166a:	41 5e                	pop    %r14
    166c:	41 5f                	pop    %r15
    166e:	c3                   	retq   
    166f:	31 db                	xor    %ebx,%ebx
    1671:	0f 1f 80 00 00 00 00 	nopl   0x0(%rax)
    1678:	49 89 cc             	mov    %rcx,%r12
    167b:	49 89 ff             	mov    %rdi,%r15
    167e:	4d 89 c6             	mov    %r8,%r14
    1681:	49 89 f5             	mov    %rsi,%r13
    1684:	e8 ea 58 01 00       	callq  16f73 <get_enclave_base>
    1689:	48 8d 53 09          	lea    0x9(%rbx),%rdx
    168d:	48 c1 e2 05          	shl    $0x5,%rdx
    1691:	48 01 ea             	add    %rbp,%rdx
    1694:	48 8b 4a 08          	mov    0x8(%rdx),%rcx
    1698:	49 01 cc             	add    %rcx,%r12
    169b:	8b 4a 04             	mov    0x4(%rdx),%ecx
    169e:	4c 01 e0             	add    %r12,%rax
    16a1:	4c 39 f8             	cmp    %r15,%rax
    16a4:	77 b5                	ja     165b <_ZL25check_dynamic_entry_rangePvmtmP24dynamic_flags_attributes+0x6b>
    16a6:	49 c1 e5 0c          	shl    $0xc,%r13
    16aa:	48 c1 e1 0c          	shl    $0xc,%rcx
    16ae:	4b 8d 7c 3d 00       	lea    0x0(%r13,%r15,1),%rdi
    16b3:	48 01 c8             	add    %rcx,%rax
    16b6:	48 39 c7             	cmp    %rax,%rdi
    16b9:	77 a0                	ja     165b <_ZL25check_dynamic_entry_rangePvmtmP24dynamic_flags_attributes+0x6b>
    16bb:	4d 85 f6             	test   %r14,%r14
    16be:	74 30                	je     16f0 <_ZL25check_dynamic_entry_rangePvmtmP24dynamic_flags_attributes+0x100>
    16c0:	48 c1 e3 05          	shl    $0x5,%rbx
    16c4:	48 01 eb             	add    %rbp,%rbx
    16c7:	48 8b 83 38 01 00 00 	mov    0x138(%rbx),%rax
    16ce:	49 89 06             	mov    %rax,(%r14)
    16d1:	0f b7 42 02          	movzwl 0x2(%rdx),%eax
    16d5:	66 41 89 46 08       	mov    %ax,0x8(%r14)
    16da:	48 83 c4 08          	add    $0x8,%rsp
    16de:	31 c0                	xor    %eax,%eax
    16e0:	5b                   	pop    %rbx
    16e1:	5d                   	pop    %rbp
    16e2:	41 5c                	pop    %r12
    16e4:	41 5d                	pop    %r13
    16e6:	41 5e                	pop    %r14
    16e8:	41 5f                	pop    %r15
    16ea:	c3                   	retq   
    16eb:	0f 1f 44 00 00       	nopl   0x0(%rax,%rax,1)
    16f0:	31 c0                	xor    %eax,%eax
    16f2:	e9 69 ff ff ff       	jmpq   1660 <_ZL25check_dynamic_entry_rangePvmtmP24dynamic_flags_attributes+0x70>
    16f7:	66 0f 1f 84 00 00 00 	nopw   0x0(%rax,%rax,1)
    16fe:	00 00 

0000000000001700 <_ZL19sgx_accept_backwardmmm>:
    1700:	4c 8d 54 24 08       	lea    0x8(%rsp),%r10
    1705:	48 83 e4 c0          	and    $0xffffffffffffffc0,%rsp
    1709:	41 ff 72 f8          	pushq  -0x8(%r10)
    170d:	55                   	push   %rbp
    170e:	48 89 e5             	mov    %rsp,%rbp
    1711:	41 55                	push   %r13
    1713:	41 54                	push   %r12
    1715:	4c 8d a5 50 ff ff ff 	lea    -0xb0(%rbp),%r12
    171c:	41 52                	push   %r10
    171e:	53                   	push   %rbx
    171f:	48 89 d3             	mov    %rdx,%rbx
    1722:	49 89 f5             	mov    %rsi,%r13
    1725:	49 8d 54 24 38       	lea    0x38(%r12),%rdx
    172a:	48 81 ec 90 00 00 00 	sub    $0x90,%rsp
    1731:	48 89 bd 50 ff ff ff 	mov    %rdi,-0xb0(%rbp)
    1738:	64 48 8b 04 25 28 00 	mov    %fs:0x28,%rax
    173f:	00 00 
    1741:	48 89 45 c8          	mov    %rax,-0x38(%rbp)
    1745:	31 c0                	xor    %eax,%eax
    1747:	4c 89 e0             	mov    %r12,%rax
    174a:	66 0f 1f 44 00 00    	nopw   0x0(%rax,%rax,1)
    1750:	48 c7 40 08 00 00 00 	movq   $0x0,0x8(%rax)
    1757:	00 
    1758:	48 83 c0 08          	add    $0x8,%rax
    175c:	48 39 d0             	cmp    %rdx,%rax
    175f:	75 ef                	jne    1750 <_ZL19sgx_accept_backwardmmm+0x50>
    1761:	4c 39 eb             	cmp    %r13,%rbx
    1764:	76 25                	jbe    178b <_ZL19sgx_accept_backwardmmm+0x8b>
    1766:	66 2e 0f 1f 84 00 00 	nopw   %cs:0x0(%rax,%rax,1)
    176d:	00 00 00 
    1770:	48 81 eb 00 10 00 00 	sub    $0x1000,%rbx
    1777:	4c 89 e7             	mov    %r12,%rdi
    177a:	48 89 de             	mov    %rbx,%rsi
    177d:	e8 da 5a 01 00       	callq  1725c <do_eaccept>
    1782:	85 c0                	test   %eax,%eax
    1784:	75 2a                	jne    17b0 <_ZL19sgx_accept_backwardmmm+0xb0>
    1786:	49 39 dd             	cmp    %rbx,%r13
    1789:	72 e5                	jb     1770 <_ZL19sgx_accept_backwardmmm+0x70>
    178b:	31 c0                	xor    %eax,%eax
    178d:	48 8b 4d c8          	mov    -0x38(%rbp),%rcx
    1791:	64 48 33 0c 25 28 00 	xor    %fs:0x28,%rcx
    1798:	00 00 
    179a:	75 19                	jne    17b5 <_ZL19sgx_accept_backwardmmm+0xb5>
    179c:	48 81 c4 90 00 00 00 	add    $0x90,%rsp
    17a3:	5b                   	pop    %rbx
    17a4:	41 5a                	pop    %r10
    17a6:	41 5c                	pop    %r12
    17a8:	41 5d                	pop    %r13
    17aa:	5d                   	pop    %rbp
    17ab:	49 8d 62 f8          	lea    -0x8(%r10),%rsp
    17af:	c3                   	retq   
    17b0:	e8 f5 5a 01 00       	callq  172aa <abort>
    17b5:	e8 d6 28 00 00       	callq  4090 <__stack_chk_fail>
    17ba:	66 0f 1f 44 00 00    	nopw   0x0(%rax,%rax,1)

00000000000017c0 <_ZL19check_dynamic_rangePvmPmP24dynamic_flags_attributes>:
    17c0:	41 57                	push   %r15
    17c2:	41 56                	push   %r14
    17c4:	49 89 f6             	mov    %rsi,%r14
    17c7:	49 c1 e6 0c          	shl    $0xc,%r14
    17cb:	41 55                	push   %r13
    17cd:	41 54                	push   %r12
    17cf:	4c 89 f0             	mov    %r14,%rax
    17d2:	55                   	push   %rbp
    17d3:	53                   	push   %rbx
    17d4:	48 f7 d0             	not    %rax
    17d7:	48 83 ec 28          	sub    $0x28,%rsp
    17db:	48 39 f8             	cmp    %rdi,%rax
    17de:	0f 82 fa 00 00 00    	jb     18de <_ZL19check_dynamic_rangePvmPmP24dynamic_flags_attributes+0x11e>
    17e4:	48 89 fb             	mov    %rdi,%rbx
    17e7:	48 89 cd             	mov    %rcx,%rbp
    17ea:	48 89 54 24 18       	mov    %rdx,0x18(%rsp)
    17ef:	49 89 f4             	mov    %rsi,%r12
    17f2:	e8 c9 13 00 00       	callq  2bc0 <get_heap_base>
    17f7:	49 89 c5             	mov    %rax,%r13
    17fa:	e8 51 14 00 00       	callq  2c50 <get_heap_min_size>
    17ff:	4d 8d 7c 05 00       	lea    0x0(%r13,%rax,1),%r15
    1804:	e8 d7 13 00 00       	callq  2be0 <get_heap_size>
    1809:	49 89 c5             	mov    %rax,%r13
    180c:	e8 3f 14 00 00       	callq  2c50 <get_heap_min_size>
    1811:	49 29 c5             	sub    %rax,%r13
    1814:	4c 39 fb             	cmp    %r15,%rbx
    1817:	72 37                	jb     1850 <_ZL19check_dynamic_rangePvmPmP24dynamic_flags_attributes+0x90>
    1819:	49 01 de             	add    %rbx,%r14
    181c:	4d 01 fd             	add    %r15,%r13
    181f:	4d 39 ee             	cmp    %r13,%r14
    1822:	77 2c                	ja     1850 <_ZL19check_dynamic_rangePvmPmP24dynamic_flags_attributes+0x90>
    1824:	48 85 ed             	test   %rbp,%rbp
    1827:	74 11                	je     183a <_ZL19check_dynamic_rangePvmPmP24dynamic_flags_attributes+0x7a>
    1829:	b8 08 00 00 00       	mov    $0x8,%eax
    182e:	48 c7 45 00 03 02 00 	movq   $0x203,0x0(%rbp)
    1835:	00 
    1836:	66 89 45 08          	mov    %ax,0x8(%rbp)
    183a:	31 c0                	xor    %eax,%eax
    183c:	48 83 c4 28          	add    $0x28,%rsp
    1840:	5b                   	pop    %rbx
    1841:	5d                   	pop    %rbp
    1842:	41 5c                	pop    %r12
    1844:	41 5d                	pop    %r13
    1846:	41 5e                	pop    %r14
    1848:	41 5f                	pop    %r15
    184a:	c3                   	retq   
    184b:	0f 1f 44 00 00       	nopl   0x0(%rax,%rax,1)
    1850:	31 c9                	xor    %ecx,%ecx
    1852:	49 89 e8             	mov    %rbp,%r8
    1855:	ba 07 00 00 00       	mov    $0x7,%edx
    185a:	4c 89 e6             	mov    %r12,%rsi
    185d:	48 89 df             	mov    %rbx,%rdi
    1860:	e8 8b fd ff ff       	callq  15f0 <_ZL25check_dynamic_entry_rangePvmtmP24dynamic_flags_attributes>
    1865:	85 c0                	test   %eax,%eax
    1867:	74 d1                	je     183a <_ZL19check_dynamic_rangePvmPmP24dynamic_flags_attributes+0x7a>
    1869:	48 8d 0d 50 62 01 00 	lea    0x16250(%rip),%rcx        # 17ac0 <g_global_data>
    1870:	8b 81 18 01 00 00    	mov    0x118(%rcx),%eax
    1876:	85 c0                	test   %eax,%eax
    1878:	74 39                	je     18b3 <_ZL19check_dynamic_rangePvmPmP24dynamic_flags_attributes+0xf3>
    187a:	0f b7 81 20 01 00 00 	movzwl 0x120(%rcx),%eax
    1881:	66 3d 13 10          	cmp    $0x1013,%ax
    1885:	74 6b                	je     18f2 <_ZL19check_dynamic_rangePvmPmP24dynamic_flags_attributes+0x132>
    1887:	31 d2                	xor    %edx,%edx
    1889:	eb 1b                	jmp    18a6 <_ZL19check_dynamic_rangePvmPmP24dynamic_flags_attributes+0xe6>
    188b:	0f 1f 44 00 00       	nopl   0x0(%rax,%rax,1)
    1890:	89 d6                	mov    %edx,%esi
    1892:	48 8d 46 09          	lea    0x9(%rsi),%rax
    1896:	48 c1 e0 05          	shl    $0x5,%rax
    189a:	48 01 c8             	add    %rcx,%rax
    189d:	0f b7 00             	movzwl (%rax),%eax
    18a0:	66 3d 13 10          	cmp    $0x1013,%ax
    18a4:	74 52                	je     18f8 <_ZL19check_dynamic_rangePvmPmP24dynamic_flags_attributes+0x138>
    18a6:	8b 81 18 01 00 00    	mov    0x118(%rcx),%eax
    18ac:	83 c2 01             	add    $0x1,%edx
    18af:	39 d0                	cmp    %edx,%eax
    18b1:	77 dd                	ja     1890 <_ZL19check_dynamic_rangePvmPmP24dynamic_flags_attributes+0xd0>
    18b3:	41 bd 0e 00 00 00    	mov    $0xe,%r13d
    18b9:	31 c9                	xor    %ecx,%ecx
    18bb:	49 89 e8             	mov    %rbp,%r8
    18be:	44 89 ea             	mov    %r13d,%edx
    18c1:	4c 89 e6             	mov    %r12,%rsi
    18c4:	48 89 df             	mov    %rbx,%rdi
    18c7:	e8 24 fd ff ff       	callq  15f0 <_ZL25check_dynamic_entry_rangePvmtmP24dynamic_flags_attributes>
    18cc:	85 c0                	test   %eax,%eax
    18ce:	0f 84 d3 00 00 00    	je     19a7 <_ZL19check_dynamic_rangePvmPmP24dynamic_flags_attributes+0x1e7>
    18d4:	41 83 c5 01          	add    $0x1,%r13d
    18d8:	41 83 fd 13          	cmp    $0x13,%r13d
    18dc:	75 db                	jne    18b9 <_ZL19check_dynamic_rangePvmPmP24dynamic_flags_attributes+0xf9>
    18de:	48 83 c4 28          	add    $0x28,%rsp
    18e2:	b8 ff ff ff ff       	mov    $0xffffffff,%eax
    18e7:	5b                   	pop    %rbx
    18e8:	5d                   	pop    %rbp
    18e9:	41 5c                	pop    %r12
    18eb:	41 5d                	pop    %r13
    18ed:	41 5e                	pop    %r14
    18ef:	41 5f                	pop    %r15
    18f1:	c3                   	retq   
    18f2:	31 f6                	xor    %esi,%esi
    18f4:	0f 1f 40 00          	nopl   0x0(%rax)
    18f8:	48 83 c6 09          	add    $0x9,%rsi
    18fc:	c7 44 24 0c 0e 00 00 	movl   $0xe,0xc(%rsp)
    1903:	00 
    1904:	48 c1 e6 05          	shl    $0x5,%rsi
    1908:	4c 8d 34 31          	lea    (%rcx,%rsi,1),%r14
    190c:	41 8b 46 04          	mov    0x4(%r14),%eax
    1910:	45 31 ff             	xor    %r15d,%r15d
    1913:	83 f8 ff             	cmp    $0xffffffff,%eax
    1916:	75 18                	jne    1930 <_ZL19check_dynamic_rangePvmPmP24dynamic_flags_attributes+0x170>
    1918:	eb 76                	jmp    1990 <_ZL19check_dynamic_rangePvmPmP24dynamic_flags_attributes+0x1d0>
    191a:	66 0f 1f 44 00 00    	nopw   0x0(%rax,%rax,1)
    1920:	41 8b 46 04          	mov    0x4(%r14),%eax
    1924:	41 83 c7 01          	add    $0x1,%r15d
    1928:	83 c0 01             	add    $0x1,%eax
    192b:	44 39 f8             	cmp    %r15d,%eax
    192e:	76 60                	jbe    1990 <_ZL19check_dynamic_rangePvmPmP24dynamic_flags_attributes+0x1d0>
    1930:	49 8b 4e 08          	mov    0x8(%r14),%rcx
    1934:	45 89 fd             	mov    %r15d,%r13d
    1937:	8b 54 24 0c          	mov    0xc(%rsp),%edx
    193b:	49 8d 46 08          	lea    0x8(%r14),%rax
    193f:	49 89 e8             	mov    %rbp,%r8
    1942:	4c 89 e6             	mov    %r12,%rsi
    1945:	48 89 df             	mov    %rbx,%rdi
    1948:	49 0f af cd          	imul   %r13,%rcx
    194c:	48 89 44 24 10       	mov    %rax,0x10(%rsp)
    1951:	e8 9a fc ff ff       	callq  15f0 <_ZL25check_dynamic_entry_rangePvmtmP24dynamic_flags_attributes>
    1956:	85 c0                	test   %eax,%eax
    1958:	75 c6                	jne    1920 <_ZL19check_dynamic_rangePvmPmP24dynamic_flags_attributes+0x160>
    195a:	48 8b 5c 24 18       	mov    0x18(%rsp),%rbx
    195f:	48 85 db             	test   %rbx,%rbx
    1962:	0f 84 d2 fe ff ff    	je     183a <_ZL19check_dynamic_rangePvmPmP24dynamic_flags_attributes+0x7a>
    1968:	48 8b 7c 24 10       	mov    0x10(%rsp),%rdi
    196d:	48 8b 17             	mov    (%rdi),%rdx
    1970:	4c 0f af ea          	imul   %rdx,%r13
    1974:	4c 89 2b             	mov    %r13,(%rbx)
    1977:	48 83 c4 28          	add    $0x28,%rsp
    197b:	5b                   	pop    %rbx
    197c:	5d                   	pop    %rbp
    197d:	41 5c                	pop    %r12
    197f:	41 5d                	pop    %r13
    1981:	41 5e                	pop    %r14
    1983:	41 5f                	pop    %r15
    1985:	c3                   	retq   
    1986:	66 2e 0f 1f 84 00 00 	nopw   %cs:0x0(%rax,%rax,1)
    198d:	00 00 00 
    1990:	83 44 24 0c 01       	addl   $0x1,0xc(%rsp)
    1995:	8b 44 24 0c          	mov    0xc(%rsp),%eax
    1999:	83 f8 13             	cmp    $0x13,%eax
    199c:	0f 85 6a ff ff ff    	jne    190c <_ZL19check_dynamic_rangePvmPmP24dynamic_flags_attributes+0x14c>
    19a2:	e9 37 ff ff ff       	jmpq   18de <_ZL19check_dynamic_rangePvmPmP24dynamic_flags_attributes+0x11e>
    19a7:	48 8b 5c 24 18       	mov    0x18(%rsp),%rbx
    19ac:	48 85 db             	test   %rbx,%rbx
    19af:	0f 84 85 fe ff ff    	je     183a <_ZL19check_dynamic_rangePvmPmP24dynamic_flags_attributes+0x7a>
    19b5:	48 c7 03 00 00 00 00 	movq   $0x0,(%rbx)
    19bc:	e9 7b fe ff ff       	jmpq   183c <_ZL19check_dynamic_rangePvmPmP24dynamic_flags_attributes+0x7c>
    19c1:	66 2e 0f 1f 84 00 00 	nopw   %cs:0x0(%rax,%rax,1)
    19c8:	00 00 00 
    19cb:	0f 1f 44 00 00       	nopl   0x0(%rax,%rax,1)

00000000000019d0 <_Z24get_dynamic_layout_by_idt>:
    19d0:	4c 8d 05 e9 60 01 00 	lea    0x160e9(%rip),%r8        # 17ac0 <g_global_data>
    19d7:	41 89 f9             	mov    %edi,%r9d
    19da:	41 8b 80 18 01 00 00 	mov    0x118(%r8),%eax
    19e1:	85 c0                	test   %eax,%eax
    19e3:	74 3f                	je     1a24 <_Z24get_dynamic_layout_by_idt+0x54>
    19e5:	41 0f b7 80 20 01 00 	movzwl 0x120(%r8),%eax
    19ec:	00 
    19ed:	66 39 c7             	cmp    %ax,%di
    19f0:	74 35                	je     1a27 <_Z24get_dynamic_layout_by_idt+0x57>
    19f2:	31 c9                	xor    %ecx,%ecx
    19f4:	eb 20                	jmp    1a16 <_Z24get_dynamic_layout_by_idt+0x46>
    19f6:	66 2e 0f 1f 84 00 00 	nopw   %cs:0x0(%rax,%rax,1)
    19fd:	00 00 00 
    1a00:	89 ce                	mov    %ecx,%esi
    1a02:	48 8d 56 09          	lea    0x9(%rsi),%rdx
    1a06:	48 c1 e2 05          	shl    $0x5,%rdx
    1a0a:	4c 01 c2             	add    %r8,%rdx
    1a0d:	0f b7 02             	movzwl (%rdx),%eax
    1a10:	66 44 39 c8          	cmp    %r9w,%ax
    1a14:	74 13                	je     1a29 <_Z24get_dynamic_layout_by_idt+0x59>
    1a16:	41 8b 80 18 01 00 00 	mov    0x118(%r8),%eax
    1a1d:	83 c1 01             	add    $0x1,%ecx
    1a20:	39 c8                	cmp    %ecx,%eax
    1a22:	77 dc                	ja     1a00 <_Z24get_dynamic_layout_by_idt+0x30>
    1a24:	31 c0                	xor    %eax,%eax
    1a26:	c3                   	retq   
    1a27:	31 f6                	xor    %esi,%esi
    1a29:	48 8d 46 09          	lea    0x9(%rsi),%rax
    1a2d:	48 c1 e0 05          	shl    $0x5,%rax
    1a31:	49 8d 04 00          	lea    (%r8,%rax,1),%rax
    1a35:	c3                   	retq   
    1a36:	66 2e 0f 1f 84 00 00 	nopw   %cs:0x0(%rax,%rax,1)
    1a3d:	00 00 00 

0000000000001a40 <is_dynamic_thread>:
    1a40:	48 83 ec 28          	sub    $0x28,%rsp
    1a44:	64 48 8b 04 25 28 00 	mov    %fs:0x28,%rax
    1a4b:	00 00 
    1a4d:	48 89 44 24 18       	mov    %rax,0x18(%rsp)
    1a52:	31 c0                	xor    %eax,%eax
    1a54:	48 85 ff             	test   %rdi,%rdi
    1a57:	74 13                	je     1a6c <is_dynamic_thread+0x2c>
    1a59:	31 d2                	xor    %edx,%edx
    1a5b:	48 89 e1             	mov    %rsp,%rcx
    1a5e:	be 01 00 00 00       	mov    $0x1,%esi
    1a63:	e8 58 fd ff ff       	callq  17c0 <_ZL19check_dynamic_rangePvmPmP24dynamic_flags_attributes>
    1a68:	85 c0                	test   %eax,%eax
    1a6a:	74 1c                	je     1a88 <is_dynamic_thread+0x48>
    1a6c:	31 c0                	xor    %eax,%eax
    1a6e:	48 8b 54 24 18       	mov    0x18(%rsp),%rdx
    1a73:	64 48 33 14 25 28 00 	xor    %fs:0x28,%rdx
    1a7a:	00 00 
    1a7c:	75 1b                	jne    1a99 <is_dynamic_thread+0x59>
    1a7e:	48 83 c4 28          	add    $0x28,%rsp
    1a82:	c3                   	retq   
    1a83:	0f 1f 44 00 00       	nopl   0x0(%rax,%rax,1)
    1a88:	48 81 3c 24 00 01 00 	cmpq   $0x100,(%rsp)
    1a8f:	00 
    1a90:	75 da                	jne    1a6c <is_dynamic_thread+0x2c>
    1a92:	b8 01 00 00 00       	mov    $0x1,%eax
    1a97:	eb d5                	jmp    1a6e <is_dynamic_thread+0x2e>
    1a99:	e8 f2 25 00 00       	callq  4090 <__stack_chk_fail>
    1a9e:	66 90                	xchg   %ax,%ax

0000000000001aa0 <is_dynamic_thread_exist>:
    1aa0:	48 8d 05 9d 93 21 00 	lea    0x21939d(%rip),%rax        # 21ae44 <EDMM_supported>
    1aa7:	8b 00                	mov    (%rax),%eax
    1aa9:	85 c0                	test   %eax,%eax
    1aab:	74 58                	je     1b05 <is_dynamic_thread_exist+0x65>
    1aad:	48 8d 0d 0c 60 01 00 	lea    0x1600c(%rip),%rcx        # 17ac0 <g_global_data>
    1ab4:	8b 81 18 01 00 00    	mov    0x118(%rcx),%eax
    1aba:	85 c0                	test   %eax,%eax
    1abc:	74 35                	je     1af3 <is_dynamic_thread_exist+0x53>
    1abe:	0f b7 81 20 01 00 00 	movzwl 0x120(%rcx),%eax
    1ac5:	66 83 f8 12          	cmp    $0x12,%ax
    1ac9:	74 35                	je     1b00 <is_dynamic_thread_exist+0x60>
    1acb:	31 d2                	xor    %edx,%edx
    1acd:	eb 17                	jmp    1ae6 <is_dynamic_thread_exist+0x46>
    1acf:	90                   	nop
    1ad0:	89 d0                	mov    %edx,%eax
    1ad2:	48 83 c0 09          	add    $0x9,%rax
    1ad6:	48 c1 e0 05          	shl    $0x5,%rax
    1ada:	48 01 c8             	add    %rcx,%rax
    1add:	0f b7 00             	movzwl (%rax),%eax
    1ae0:	66 83 f8 12          	cmp    $0x12,%ax
    1ae4:	74 1a                	je     1b00 <is_dynamic_thread_exist+0x60>
    1ae6:	8b 81 18 01 00 00    	mov    0x118(%rcx),%eax
    1aec:	83 c2 01             	add    $0x1,%edx
    1aef:	39 d0                	cmp    %edx,%eax
    1af1:	77 dd                	ja     1ad0 <is_dynamic_thread_exist+0x30>
    1af3:	31 c0                	xor    %eax,%eax
    1af5:	c3                   	retq   
    1af6:	66 2e 0f 1f 84 00 00 	nopw   %cs:0x0(%rax,%rax,1)
    1afd:	00 00 00 
    1b00:	b8 01 00 00 00       	mov    $0x1,%eax
    1b05:	f3 c3                	repz retq 
    1b07:	66 0f 1f 84 00 00 00 	nopw   0x0(%rax,%rax,1)
    1b0e:	00 00 

0000000000001b10 <get_dynamic_stack_max_page>:
    1b10:	48 8d 35 a9 5f 01 00 	lea    0x15fa9(%rip),%rsi        # 17ac0 <g_global_data>
    1b17:	8b 86 18 01 00 00    	mov    0x118(%rsi),%eax
    1b1d:	85 c0                	test   %eax,%eax
    1b1f:	74 3c                	je     1b5d <get_dynamic_stack_max_page+0x4d>
    1b21:	0f b7 86 20 01 00 00 	movzwl 0x120(%rsi),%eax
    1b28:	66 83 f8 07          	cmp    $0x7,%ax
    1b2c:	74 31                	je     1b5f <get_dynamic_stack_max_page+0x4f>
    1b2e:	31 d2                	xor    %edx,%edx
    1b30:	eb 1c                	jmp    1b4e <get_dynamic_stack_max_page+0x3e>
    1b32:	66 0f 1f 44 00 00    	nopw   0x0(%rax,%rax,1)
    1b38:	89 d1                	mov    %edx,%ecx
    1b3a:	48 8d 41 09          	lea    0x9(%rcx),%rax
    1b3e:	48 c1 e0 05          	shl    $0x5,%rax
    1b42:	48 01 f0             	add    %rsi,%rax
    1b45:	0f b7 00             	movzwl (%rax),%eax
    1b48:	66 83 f8 07          	cmp    $0x7,%ax
    1b4c:	74 13                	je     1b61 <get_dynamic_stack_max_page+0x51>
    1b4e:	8b 86 18 01 00 00    	mov    0x118(%rsi),%eax
    1b54:	83 c2 01             	add    $0x1,%edx
    1b57:	39 d0                	cmp    %edx,%eax
    1b59:	77 dd                	ja     1b38 <get_dynamic_stack_max_page+0x28>
    1b5b:	31 c0                	xor    %eax,%eax
    1b5d:	f3 c3                	repz retq 
    1b5f:	31 c9                	xor    %ecx,%ecx
    1b61:	48 83 c1 09          	add    $0x9,%rcx
    1b65:	48 c1 e1 05          	shl    $0x5,%rcx
    1b69:	48 01 f1             	add    %rsi,%rcx
    1b6c:	8b 41 04             	mov    0x4(%rcx),%eax
    1b6f:	c3                   	retq   

0000000000001b70 <sgx_accept_forward>:
    1b70:	4c 8d 54 24 08       	lea    0x8(%rsp),%r10
    1b75:	48 83 e4 c0          	and    $0xffffffffffffffc0,%rsp
    1b79:	41 ff 72 f8          	pushq  -0x8(%r10)
    1b7d:	55                   	push   %rbp
    1b7e:	48 89 e5             	mov    %rsp,%rbp
    1b81:	41 55                	push   %r13
    1b83:	41 54                	push   %r12
    1b85:	4c 8d a5 50 ff ff ff 	lea    -0xb0(%rbp),%r12
    1b8c:	41 52                	push   %r10
    1b8e:	53                   	push   %rbx
    1b8f:	49 89 d5             	mov    %rdx,%r13
    1b92:	48 89 f3             	mov    %rsi,%rbx
    1b95:	49 8d 54 24 38       	lea    0x38(%r12),%rdx
    1b9a:	48 81 ec 90 00 00 00 	sub    $0x90,%rsp
    1ba1:	48 89 bd 50 ff ff ff 	mov    %rdi,-0xb0(%rbp)
    1ba8:	64 48 8b 04 25 28 00 	mov    %fs:0x28,%rax
    1baf:	00 00 
    1bb1:	48 89 45 c8          	mov    %rax,-0x38(%rbp)
    1bb5:	31 c0                	xor    %eax,%eax
    1bb7:	4c 89 e0             	mov    %r12,%rax
    1bba:	66 0f 1f 44 00 00    	nopw   0x0(%rax,%rax,1)
    1bc0:	48 c7 40 08 00 00 00 	movq   $0x0,0x8(%rax)
    1bc7:	00 
    1bc8:	48 83 c0 08          	add    $0x8,%rax
    1bcc:	48 39 d0             	cmp    %rdx,%rax
    1bcf:	75 ef                	jne    1bc0 <sgx_accept_forward+0x50>
    1bd1:	4c 39 eb             	cmp    %r13,%rbx
    1bd4:	73 25                	jae    1bfb <sgx_accept_forward+0x8b>
    1bd6:	66 2e 0f 1f 84 00 00 	nopw   %cs:0x0(%rax,%rax,1)
    1bdd:	00 00 00 
    1be0:	48 89 de             	mov    %rbx,%rsi
    1be3:	4c 89 e7             	mov    %r12,%rdi
    1be6:	e8 71 56 01 00       	callq  1725c <do_eaccept>
    1beb:	85 c0                	test   %eax,%eax
    1bed:	75 31                	jne    1c20 <sgx_accept_forward+0xb0>
    1bef:	48 81 c3 00 10 00 00 	add    $0x1000,%rbx
    1bf6:	49 39 dd             	cmp    %rbx,%r13
    1bf9:	77 e5                	ja     1be0 <sgx_accept_forward+0x70>
    1bfb:	31 c0                	xor    %eax,%eax
    1bfd:	48 8b 4d c8          	mov    -0x38(%rbp),%rcx
    1c01:	64 48 33 0c 25 28 00 	xor    %fs:0x28,%rcx
    1c08:	00 00 
    1c0a:	75 19                	jne    1c25 <sgx_accept_forward+0xb5>
    1c0c:	48 81 c4 90 00 00 00 	add    $0x90,%rsp
    1c13:	5b                   	pop    %rbx
    1c14:	41 5a                	pop    %r10
    1c16:	41 5c                	pop    %r12
    1c18:	41 5d                	pop    %r13
    1c1a:	5d                   	pop    %rbp
    1c1b:	49 8d 62 f8          	lea    -0x8(%r10),%rsp
    1c1f:	c3                   	retq   
    1c20:	e8 85 56 01 00       	callq  172aa <abort>
    1c25:	e8 66 24 00 00       	callq  4090 <__stack_chk_fail>
    1c2a:	66 0f 1f 44 00 00    	nopw   0x0(%rax,%rax,1)

0000000000001c30 <_Z18accept_post_removePVK9_layout_tS1_m>:
    1c30:	48 39 f7             	cmp    %rsi,%rdi
    1c33:	0f 83 ca 00 00 00    	jae    1d03 <_Z18accept_post_removePVK9_layout_tS1_m+0xd3>
    1c39:	41 56                	push   %r14
    1c3b:	41 55                	push   %r13
    1c3d:	41 54                	push   %r12
    1c3f:	49 89 fc             	mov    %rdi,%r12
    1c42:	55                   	push   %rbp
    1c43:	48 89 d5             	mov    %rdx,%rbp
    1c46:	53                   	push   %rbx
    1c47:	48 89 f3             	mov    %rsi,%rbx
    1c4a:	eb 43                	jmp    1c8f <_Z18accept_post_removePVK9_layout_tS1_m+0x5f>
    1c4c:	0f 1f 40 00          	nopl   0x0(%rax)
    1c50:	41 0f b7 44 24 02    	movzwl 0x2(%r12),%eax
    1c56:	a8 10                	test   $0x10,%al
    1c58:	74 3f                	je     1c99 <_Z18accept_post_removePVK9_layout_tS1_m+0x69>
    1c5a:	49 8b 74 24 08       	mov    0x8(%r12),%rsi
    1c5f:	4c 8d 2c 2e          	lea    (%rsi,%rbp,1),%r13
    1c63:	e8 0b 53 01 00       	callq  16f73 <get_enclave_base>
    1c68:	41 8b 54 24 04       	mov    0x4(%r12),%edx
    1c6d:	4a 8d 34 28          	lea    (%rax,%r13,1),%rsi
    1c71:	bf 10 04 00 00       	mov    $0x410,%edi
    1c76:	48 c1 e2 0c          	shl    $0xc,%rdx
    1c7a:	48 01 f2             	add    %rsi,%rdx
    1c7d:	e8 ee fe ff ff       	callq  1b70 <sgx_accept_forward>
    1c82:	85 c0                	test   %eax,%eax
    1c84:	75 69                	jne    1cef <_Z18accept_post_removePVK9_layout_tS1_m+0xbf>
    1c86:	49 83 c4 20          	add    $0x20,%r12
    1c8a:	4c 39 e3             	cmp    %r12,%rbx
    1c8d:	76 69                	jbe    1cf8 <_Z18accept_post_removePVK9_layout_tS1_m+0xc8>
    1c8f:	41 0f b7 04 24       	movzwl (%r12),%eax
    1c94:	f6 c4 10             	test   $0x10,%ah
    1c97:	74 b7                	je     1c50 <_Z18accept_post_removePVK9_layout_tS1_m+0x20>
    1c99:	41 0f b7 04 24       	movzwl (%r12),%eax
    1c9e:	f6 c4 10             	test   $0x10,%ah
    1ca1:	74 e3                	je     1c86 <_Z18accept_post_removePVK9_layout_tS1_m+0x56>
    1ca3:	41 8b 44 24 04       	mov    0x4(%r12),%eax
    1ca8:	45 31 f6             	xor    %r14d,%r14d
    1cab:	45 31 ed             	xor    %r13d,%r13d
    1cae:	85 c0                	test   %eax,%eax
    1cb0:	75 14                	jne    1cc6 <_Z18accept_post_removePVK9_layout_tS1_m+0x96>
    1cb2:	eb d2                	jmp    1c86 <_Z18accept_post_removePVK9_layout_tS1_m+0x56>
    1cb4:	0f 1f 40 00          	nopl   0x0(%rax)
    1cb8:	41 8b 44 24 04       	mov    0x4(%r12),%eax
    1cbd:	41 83 c6 01          	add    $0x1,%r14d
    1cc1:	44 39 f0             	cmp    %r14d,%eax
    1cc4:	76 c0                	jbe    1c86 <_Z18accept_post_removePVK9_layout_tS1_m+0x56>
    1cc6:	49 8b 44 24 08       	mov    0x8(%r12),%rax
    1ccb:	41 0f b7 7c 24 02    	movzwl 0x2(%r12),%edi
    1cd1:	4c 89 e6             	mov    %r12,%rsi
    1cd4:	49 01 c5             	add    %rax,%r13
    1cd7:	f7 df                	neg    %edi
    1cd9:	4c 89 ea             	mov    %r13,%rdx
    1cdc:	48 63 ff             	movslq %edi,%rdi
    1cdf:	48 c1 e7 05          	shl    $0x5,%rdi
    1ce3:	4c 01 e7             	add    %r12,%rdi
    1ce6:	e8 45 ff ff ff       	callq  1c30 <_Z18accept_post_removePVK9_layout_tS1_m>
    1ceb:	85 c0                	test   %eax,%eax
    1ced:	74 c9                	je     1cb8 <_Z18accept_post_removePVK9_layout_tS1_m+0x88>
    1cef:	5b                   	pop    %rbx
    1cf0:	5d                   	pop    %rbp
    1cf1:	41 5c                	pop    %r12
    1cf3:	41 5d                	pop    %r13
    1cf5:	41 5e                	pop    %r14
    1cf7:	c3                   	retq   
    1cf8:	5b                   	pop    %rbx
    1cf9:	31 c0                	xor    %eax,%eax
    1cfb:	5d                   	pop    %rbp
    1cfc:	41 5c                	pop    %r12
    1cfe:	41 5d                	pop    %r13
    1d00:	41 5e                	pop    %r14
    1d02:	c3                   	retq   
    1d03:	31 c0                	xor    %eax,%eax
    1d05:	c3                   	retq   
    1d06:	66 2e 0f 1f 84 00 00 	nopw   %cs:0x0(%rax,%rax,1)
    1d0d:	00 00 00 

0000000000001d10 <apply_pages_within_exception>:
    1d10:	4c 8d 54 24 08       	lea    0x8(%rsp),%r10
    1d15:	48 83 e4 c0          	and    $0xffffffffffffffc0,%rsp
    1d19:	41 ff 72 f8          	pushq  -0x8(%r10)
    1d1d:	55                   	push   %rbp
    1d1e:	48 89 e5             	mov    %rsp,%rbp
    1d21:	41 57                	push   %r15
    1d23:	41 56                	push   %r14
    1d25:	41 55                	push   %r13
    1d27:	41 54                	push   %r12
    1d29:	41 52                	push   %r10
    1d2b:	53                   	push   %rbx
    1d2c:	48 83 c4 80          	add    $0xffffffffffffff80,%rsp
    1d30:	64 48 8b 04 25 28 00 	mov    %fs:0x28,%rax
    1d37:	00 00 
    1d39:	48 89 45 c8          	mov    %rax,-0x38(%rbp)
    1d3d:	31 c0                	xor    %eax,%eax
    1d3f:	48 85 ff             	test   %rdi,%rdi
    1d42:	0f 84 9a 00 00 00    	je     1de2 <apply_pages_within_exception+0xd2>
    1d48:	31 c9                	xor    %ecx,%ecx
    1d4a:	31 d2                	xor    %edx,%edx
    1d4c:	49 89 ff             	mov    %rdi,%r15
    1d4f:	49 89 f4             	mov    %rsi,%r12
    1d52:	e8 69 fa ff ff       	callq  17c0 <_ZL19check_dynamic_rangePvmPmP24dynamic_flags_attributes>
    1d57:	85 c0                	test   %eax,%eax
    1d59:	41 89 c6             	mov    %eax,%r14d
    1d5c:	0f 85 80 00 00 00    	jne    1de2 <apply_pages_within_exception+0xd2>
    1d62:	4c 8d ad 50 ff ff ff 	lea    -0xb0(%rbp),%r13
    1d69:	49 c1 e4 0c          	shl    $0xc,%r12
    1d6d:	4c 89 fb             	mov    %r15,%rbx
    1d70:	4d 01 fc             	add    %r15,%r12
    1d73:	48 c7 85 50 ff ff ff 	movq   $0x20b,-0xb0(%rbp)
    1d7a:	0b 02 00 00 
    1d7e:	49 8d 55 38          	lea    0x38(%r13),%rdx
    1d82:	4c 89 e8             	mov    %r13,%rax
    1d85:	0f 1f 00             	nopl   (%rax)
    1d88:	48 c7 40 08 00 00 00 	movq   $0x0,0x8(%rax)
    1d8f:	00 
    1d90:	48 83 c0 08          	add    $0x8,%rax
    1d94:	48 39 d0             	cmp    %rdx,%rax
    1d97:	75 ef                	jne    1d88 <apply_pages_within_exception+0x78>
    1d99:	4d 39 e7             	cmp    %r12,%r15
    1d9c:	73 1d                	jae    1dbb <apply_pages_within_exception+0xab>
    1d9e:	66 90                	xchg   %ax,%ax
    1da0:	48 89 de             	mov    %rbx,%rsi
    1da3:	4c 89 ef             	mov    %r13,%rdi
    1da6:	e8 b1 54 01 00       	callq  1725c <do_eaccept>
    1dab:	85 c0                	test   %eax,%eax
    1dad:	75 3b                	jne    1dea <apply_pages_within_exception+0xda>
    1daf:	48 81 c3 00 10 00 00 	add    $0x1000,%rbx
    1db6:	49 39 dc             	cmp    %rbx,%r12
    1db9:	77 e5                	ja     1da0 <apply_pages_within_exception+0x90>
    1dbb:	48 8b 4d c8          	mov    -0x38(%rbp),%rcx
    1dbf:	64 48 33 0c 25 28 00 	xor    %fs:0x28,%rcx
    1dc6:	00 00 
    1dc8:	44 89 f0             	mov    %r14d,%eax
    1dcb:	75 22                	jne    1def <apply_pages_within_exception+0xdf>
    1dcd:	48 83 ec 80          	sub    $0xffffffffffffff80,%rsp
    1dd1:	5b                   	pop    %rbx
    1dd2:	41 5a                	pop    %r10
    1dd4:	41 5c                	pop    %r12
    1dd6:	41 5d                	pop    %r13
    1dd8:	41 5e                	pop    %r14
    1dda:	41 5f                	pop    %r15
    1ddc:	5d                   	pop    %rbp
    1ddd:	49 8d 62 f8          	lea    -0x8(%r10),%rsp
    1de1:	c3                   	retq   
    1de2:	41 be ff ff ff ff    	mov    $0xffffffff,%r14d
    1de8:	eb d1                	jmp    1dbb <apply_pages_within_exception+0xab>
    1dea:	e8 bb 54 01 00       	callq  172aa <abort>
    1def:	e8 9c 22 00 00       	callq  4090 <__stack_chk_fail>
    1df4:	66 2e 0f 1f 84 00 00 	nopw   %cs:0x0(%rax,%rax,1)
    1dfb:	00 00 00 
    1dfe:	66 90                	xchg   %ax,%ax

0000000000001e00 <apply_EPC_pages>:
    1e00:	55                   	push   %rbp
    1e01:	53                   	push   %rbx
    1e02:	48 83 ec 28          	sub    $0x28,%rsp
    1e06:	64 48 8b 04 25 28 00 	mov    %fs:0x28,%rax
    1e0d:	00 00 
    1e0f:	48 89 44 24 18       	mov    %rax,0x18(%rsp)
    1e14:	31 c0                	xor    %eax,%eax
    1e16:	48 85 ff             	test   %rdi,%rdi
    1e19:	74 55                	je     1e70 <apply_EPC_pages+0x70>
    1e1b:	31 d2                	xor    %edx,%edx
    1e1d:	48 89 e1             	mov    %rsp,%rcx
    1e20:	48 89 fd             	mov    %rdi,%rbp
    1e23:	48 89 f3             	mov    %rsi,%rbx
    1e26:	e8 95 f9 ff ff       	callq  17c0 <_ZL19check_dynamic_rangePvmPmP24dynamic_flags_attributes>
    1e2b:	85 c0                	test   %eax,%eax
    1e2d:	75 41                	jne    1e70 <apply_EPC_pages+0x70>
    1e2f:	48 c1 e3 0c          	shl    $0xc,%rbx
    1e33:	f6 44 24 08 40       	testb  $0x40,0x8(%rsp)
    1e38:	48 89 ee             	mov    %rbp,%rsi
    1e3b:	48 8d 14 2b          	lea    (%rbx,%rbp,1),%rdx
    1e3f:	bf 0b 02 00 00       	mov    $0x20b,%edi
    1e44:	75 22                	jne    1e68 <apply_EPC_pages+0x68>
    1e46:	e8 b5 f8 ff ff       	callq  1700 <_ZL19sgx_accept_backwardmmm>
    1e4b:	48 8b 74 24 18       	mov    0x18(%rsp),%rsi
    1e50:	64 48 33 34 25 28 00 	xor    %fs:0x28,%rsi
    1e57:	00 00 
    1e59:	75 1c                	jne    1e77 <apply_EPC_pages+0x77>
    1e5b:	48 83 c4 28          	add    $0x28,%rsp
    1e5f:	5b                   	pop    %rbx
    1e60:	5d                   	pop    %rbp
    1e61:	c3                   	retq   
    1e62:	66 0f 1f 44 00 00    	nopw   0x0(%rax,%rax,1)
    1e68:	e8 03 fd ff ff       	callq  1b70 <sgx_accept_forward>
    1e6d:	eb dc                	jmp    1e4b <apply_EPC_pages+0x4b>
    1e6f:	90                   	nop
    1e70:	b8 ff ff ff ff       	mov    $0xffffffff,%eax
    1e75:	eb d4                	jmp    1e4b <apply_EPC_pages+0x4b>
    1e77:	e8 14 22 00 00       	callq  4090 <__stack_chk_fail>
    1e7c:	0f 1f 40 00          	nopl   0x0(%rax)

0000000000001e80 <trim_EPC_pages>:
    1e80:	48 85 ff             	test   %rdi,%rdi
    1e83:	74 6a                	je     1eef <trim_EPC_pages+0x6f>
    1e85:	55                   	push   %rbp
    1e86:	53                   	push   %rbx
    1e87:	31 c9                	xor    %ecx,%ecx
    1e89:	31 d2                	xor    %edx,%edx
    1e8b:	48 89 f5             	mov    %rsi,%rbp
    1e8e:	48 89 fb             	mov    %rdi,%rbx
    1e91:	48 83 ec 08          	sub    $0x8,%rsp
    1e95:	e8 26 f9 ff ff       	callq  17c0 <_ZL19check_dynamic_rangePvmPmP24dynamic_flags_attributes>
    1e9a:	85 c0                	test   %eax,%eax
    1e9c:	75 4a                	jne    1ee8 <trim_EPC_pages+0x68>
    1e9e:	48 c1 e5 0c          	shl    $0xc,%rbp
    1ea2:	48 89 df             	mov    %rbx,%rdi
    1ea5:	48 01 dd             	add    %rbx,%rbp
    1ea8:	48 89 ee             	mov    %rbp,%rsi
    1eab:	e8 40 0c 00 00       	callq  2af0 <trim_range_ocall>
    1eb0:	48 89 ea             	mov    %rbp,%rdx
    1eb3:	48 89 de             	mov    %rbx,%rsi
    1eb6:	bf 10 04 00 00       	mov    $0x410,%edi
    1ebb:	e8 b0 fc ff ff       	callq  1b70 <sgx_accept_forward>
    1ec0:	48 39 eb             	cmp    %rbp,%rbx
    1ec3:	73 17                	jae    1edc <trim_EPC_pages+0x5c>
    1ec5:	0f 1f 00             	nopl   (%rax)
    1ec8:	48 89 df             	mov    %rbx,%rdi
    1ecb:	48 81 c3 00 10 00 00 	add    $0x1000,%rbx
    1ed2:	e8 79 0c 00 00       	callq  2b50 <trim_range_commit_ocall>
    1ed7:	48 39 dd             	cmp    %rbx,%rbp
    1eda:	77 ec                	ja     1ec8 <trim_EPC_pages+0x48>
    1edc:	48 83 c4 08          	add    $0x8,%rsp
    1ee0:	5b                   	pop    %rbx
    1ee1:	5d                   	pop    %rbp
    1ee2:	c3                   	retq   
    1ee3:	0f 1f 44 00 00       	nopl   0x0(%rax,%rax,1)
    1ee8:	b8 ff ff ff ff       	mov    $0xffffffff,%eax
    1eed:	eb ed                	jmp    1edc <trim_EPC_pages+0x5c>
    1eef:	b8 ff ff ff ff       	mov    $0xffffffff,%eax
    1ef4:	c3                   	retq   
    1ef5:	66 2e 0f 1f 84 00 00 	nopw   %cs:0x0(%rax,%rax,1)
    1efc:	00 00 00 
    1eff:	90                   	nop

0000000000001f00 <do_add_thread>:
    1f00:	41 57                	push   %r15
    1f02:	41 56                	push   %r14
    1f04:	41 55                	push   %r13
    1f06:	41 54                	push   %r12
    1f08:	55                   	push   %rbp
    1f09:	53                   	push   %rbx
    1f0a:	48 89 fb             	mov    %rdi,%rbx
    1f0d:	48 83 ec 18          	sub    $0x18,%rsp
    1f11:	64 48 8b 04 25 28 00 	mov    %fs:0x28,%rax
    1f18:	00 00 
    1f1a:	48 89 44 24 08       	mov    %rax,0x8(%rsp)
    1f1f:	31 c0                	xor    %eax,%eax
    1f21:	48 c7 04 24 00 00 00 	movq   $0x0,(%rsp)
    1f28:	00 
    1f29:	e8 45 50 01 00       	callq  16f73 <get_enclave_base>
    1f2e:	31 c9                	xor    %ecx,%ecx
    1f30:	48 89 e2             	mov    %rsp,%rdx
    1f33:	be 01 00 00 00       	mov    $0x1,%esi
    1f38:	48 89 df             	mov    %rbx,%rdi
    1f3b:	48 89 c5             	mov    %rax,%rbp
    1f3e:	e8 7d f8 ff ff       	callq  17c0 <_ZL19check_dynamic_rangePvmPmP24dynamic_flags_attributes>
    1f43:	85 c0                	test   %eax,%eax
    1f45:	75 4d                	jne    1f94 <do_add_thread+0x94>
    1f47:	4c 8d 2d 72 5b 01 00 	lea    0x15b72(%rip),%r13        # 17ac0 <g_global_data>
    1f4e:	41 8b 85 18 01 00 00 	mov    0x118(%r13),%eax
    1f55:	85 c0                	test   %eax,%eax
    1f57:	74 3b                	je     1f94 <do_add_thread+0x94>
    1f59:	41 0f b7 85 20 01 00 	movzwl 0x120(%r13),%eax
    1f60:	00 
    1f61:	66 83 f8 0e          	cmp    $0xe,%ax
    1f65:	74 55                	je     1fbc <do_add_thread+0xbc>
    1f67:	31 d2                	xor    %edx,%edx
    1f69:	eb 1b                	jmp    1f86 <do_add_thread+0x86>
    1f6b:	0f 1f 44 00 00       	nopl   0x0(%rax,%rax,1)
    1f70:	89 d1                	mov    %edx,%ecx
    1f72:	48 8d 41 09          	lea    0x9(%rcx),%rax
    1f76:	48 c1 e0 05          	shl    $0x5,%rax
    1f7a:	4c 01 e8             	add    %r13,%rax
    1f7d:	0f b7 00             	movzwl (%rax),%eax
    1f80:	66 83 f8 0e          	cmp    $0xe,%ax
    1f84:	74 3a                	je     1fc0 <do_add_thread+0xc0>
    1f86:	41 8b 85 18 01 00 00 	mov    0x118(%r13),%eax
    1f8d:	83 c2 01             	add    $0x1,%edx
    1f90:	39 d0                	cmp    %edx,%eax
    1f92:	77 dc                	ja     1f70 <do_add_thread+0x70>
    1f94:	b8 01 00 00 00       	mov    $0x1,%eax
    1f99:	48 8b 5c 24 08       	mov    0x8(%rsp),%rbx
    1f9e:	64 48 33 1c 25 28 00 	xor    %fs:0x28,%rbx
    1fa5:	00 00 
    1fa7:	0f 85 2d 01 00 00    	jne    20da <do_add_thread+0x1da>
    1fad:	48 83 c4 18          	add    $0x18,%rsp
    1fb1:	5b                   	pop    %rbx
    1fb2:	5d                   	pop    %rbp
    1fb3:	41 5c                	pop    %r12
    1fb5:	41 5d                	pop    %r13
    1fb7:	41 5e                	pop    %r14
    1fb9:	41 5f                	pop    %r15
    1fbb:	c3                   	retq   
    1fbc:	31 c9                	xor    %ecx,%ecx
    1fbe:	66 90                	xchg   %ax,%ax
    1fc0:	48 83 c1 09          	add    $0x9,%rcx
    1fc4:	41 bf 0e 00 00 00    	mov    $0xe,%r15d
    1fca:	48 c1 e1 05          	shl    $0x5,%rcx
    1fce:	49 8d 44 0d 00       	lea    0x0(%r13,%rcx,1),%rax
    1fd3:	4c 8b 70 08          	mov    0x8(%rax),%r14
    1fd7:	4c 03 34 24          	add    (%rsp),%r14
    1fdb:	4e 8d 64 35 00       	lea    0x0(%rbp,%r14,1),%r12
    1fe0:	4c 39 e3             	cmp    %r12,%rbx
    1fe3:	75 af                	jne    1f94 <do_add_thread+0x94>
    1fe5:	0f 1f 00             	nopl   (%rax)
    1fe8:	41 8b 85 18 01 00 00 	mov    0x118(%r13),%eax
    1fef:	85 c0                	test   %eax,%eax
    1ff1:	74 41                	je     2034 <do_add_thread+0x134>
    1ff3:	41 0f b7 85 20 01 00 	movzwl 0x120(%r13),%eax
    1ffa:	00 
    1ffb:	66 41 39 c7          	cmp    %ax,%r15w
    1fff:	0f 84 8e 00 00 00    	je     2093 <do_add_thread+0x193>
    2005:	31 d2                	xor    %edx,%edx
    2007:	eb 1d                	jmp    2026 <do_add_thread+0x126>
    2009:	0f 1f 80 00 00 00 00 	nopl   0x0(%rax)
    2010:	89 d1                	mov    %edx,%ecx
    2012:	48 8d 41 09          	lea    0x9(%rcx),%rax
    2016:	48 c1 e0 05          	shl    $0x5,%rax
    201a:	4c 01 e8             	add    %r13,%rax
    201d:	0f b7 00             	movzwl (%rax),%eax
    2020:	66 41 39 c7          	cmp    %ax,%r15w
    2024:	74 72                	je     2098 <do_add_thread+0x198>
    2026:	41 8b 85 18 01 00 00 	mov    0x118(%r13),%eax
    202d:	83 c2 01             	add    $0x1,%edx
    2030:	39 d0                	cmp    %edx,%eax
    2032:	77 dc                	ja     2010 <do_add_thread+0x110>
    2034:	41 83 c7 01          	add    $0x1,%r15d
    2038:	66 41 83 ff 13       	cmp    $0x13,%r15w
    203d:	75 a9                	jne    1fe8 <do_add_thread+0xe8>
    203f:	49 8d b5 d0 00 00 00 	lea    0xd0(%r13),%rsi
    2046:	ba 48 00 00 00       	mov    $0x48,%edx
    204b:	48 89 df             	mov    %rbx,%rdi
    204e:	e8 2d 57 00 00       	callq  7780 <memcpy>
    2053:	4c 01 73 10          	add    %r14,0x10(%rbx)
    2057:	4c 01 73 30          	add    %r14,0x30(%rbx)
    205b:	31 ff                	xor    %edi,%edi
    205d:	48 89 de             	mov    %rbx,%rsi
    2060:	4c 01 73 38          	add    %r14,0x38(%rbx)
    2064:	e8 47 09 00 00       	callq  29b0 <sgx_ocall>
    2069:	85 c0                	test   %eax,%eax
    206b:	0f 85 23 ff ff ff    	jne    1f94 <do_add_thread+0x94>
    2071:	49 8d 94 24 00 10 00 	lea    0x1000(%r12),%rdx
    2078:	00 
    2079:	4c 89 e6             	mov    %r12,%rsi
    207c:	bf 10 01 00 00       	mov    $0x110,%edi
    2081:	e8 7a f6 ff ff       	callq  1700 <_ZL19sgx_accept_backwardmmm>
    2086:	85 c0                	test   %eax,%eax
    2088:	0f 95 c0             	setne  %al
    208b:	0f b6 c0             	movzbl %al,%eax
    208e:	e9 06 ff ff ff       	jmpq   1f99 <do_add_thread+0x99>
    2093:	31 c9                	xor    %ecx,%ecx
    2095:	0f 1f 00             	nopl   (%rax)
    2098:	48 83 c1 09          	add    $0x9,%rcx
    209c:	48 c1 e1 05          	shl    $0x5,%rcx
    20a0:	4c 01 e9             	add    %r13,%rcx
    20a3:	0f b7 41 02          	movzwl 0x2(%rcx),%eax
    20a7:	a8 20                	test   $0x20,%al
    20a9:	74 89                	je     2034 <do_add_thread+0x134>
    20ab:	8b 71 04             	mov    0x4(%rcx),%esi
    20ae:	48 8b 79 08          	mov    0x8(%rcx),%rdi
    20b2:	48 03 3c 24          	add    (%rsp),%rdi
    20b6:	48 01 ef             	add    %rbp,%rdi
    20b9:	e8 42 fd ff ff       	callq  1e00 <apply_EPC_pages>
    20be:	85 c0                	test   %eax,%eax
    20c0:	0f 85 ce fe ff ff    	jne    1f94 <do_add_thread+0x94>
    20c6:	41 83 c7 01          	add    $0x1,%r15d
    20ca:	66 41 83 ff 13       	cmp    $0x13,%r15w
    20cf:	0f 85 13 ff ff ff    	jne    1fe8 <do_add_thread+0xe8>
    20d5:	e9 65 ff ff ff       	jmpq   203f <do_add_thread+0x13f>
    20da:	e8 b1 1f 00 00       	callq  4090 <__stack_chk_fail>
    20df:	90                   	nop

00000000000020e0 <_Z30_random_stack_noinline_wrapperI9_status_tJjPvEJRiRS1_EET_PFS4_DpT0_EDpOT1_.isra.0>:
    20e0:	48 89 f8             	mov    %rdi,%rax
    20e3:	89 f7                	mov    %esi,%edi
    20e5:	48 89 d6             	mov    %rdx,%rsi
    20e8:	ff e0                	jmpq   *%rax
    20ea:	66 0f 1f 44 00 00    	nopw   0x0(%rax,%rax,1)

00000000000020f0 <_ZL10trts_ecalljPv>:
    20f0:	0f b6 05 2f 8f 21 00 	movzbl 0x218f2f(%rip),%eax        # 21b026 <_ZL16g_is_first_ecall>
    20f7:	41 54                	push   %r12
    20f9:	49 89 f4             	mov    %rsi,%r12
    20fc:	55                   	push   %rbp
    20fd:	53                   	push   %rbx
    20fe:	89 fb                	mov    %edi,%ebx
    2100:	84 c0                	test   %al,%al
    2102:	0f 85 98 00 00 00    	jne    21a0 <_ZL10trts_ecalljPv+0xb0>
    2108:	8d 43 07             	lea    0x7(%rbx),%eax
    210b:	83 f8 01             	cmp    $0x1,%eax
    210e:	76 20                	jbe    2130 <_ZL10trts_ecalljPv+0x40>
    2110:	48 8d 2d c9 8c 21 00 	lea    0x218cc9(%rip),%rbp        # 21ade0 <g_ecall_table>
    2117:	48 3b 5d 00          	cmp    0x0(%rbp),%rbx
    211b:	72 33                	jb     2150 <_ZL10trts_ecalljPv+0x60>
    211d:	b8 01 10 00 00       	mov    $0x1001,%eax
    2122:	5b                   	pop    %rbx
    2123:	5d                   	pop    %rbp
    2124:	41 5c                	pop    %r12
    2126:	c3                   	retq   
    2127:	66 0f 1f 84 00 00 00 	nopw   0x0(%rax,%rax,1)
    212e:	00 00 
    2130:	e8 79 4e 01 00       	callq  16fae <get_thread_data>
    2135:	48 8b 48 10          	mov    0x10(%rax),%rcx
    2139:	48 39 48 08          	cmp    %rcx,0x8(%rax)
    213d:	0f 84 d5 00 00 00    	je     2218 <_ZL10trts_ecalljPv+0x128>
    2143:	5b                   	pop    %rbx
    2144:	b8 01 00 00 00       	mov    $0x1,%eax
    2149:	5d                   	pop    %rbp
    214a:	41 5c                	pop    %r12
    214c:	c3                   	retq   
    214d:	0f 1f 00             	nopl   (%rax)
    2150:	e8 59 4e 01 00       	callq  16fae <get_thread_data>
    2155:	0f ae e8             	lfence 
    2158:	48 8b 50 08          	mov    0x8(%rax),%rdx
    215c:	48 3b 50 10          	cmp    0x10(%rax),%rdx
    2160:	0f 84 d2 00 00 00    	je     2238 <_ZL10trts_ecalljPv+0x148>
    2166:	48 81 7a 20 44 49 43 	cmpq   $0x4f434944,0x20(%rdx)
    216d:	4f 
    216e:	0f 85 28 01 00 00    	jne    229c <_ZL10trts_ecalljPv+0x1ac>
    2174:	48 8d 05 a5 51 01 00 	lea    0x151a5(%rip),%rax        # 17320 <g_dyn_entry_table>
    217b:	48 8b 52 28          	mov    0x28(%rdx),%rdx
    217f:	48 3b 10             	cmp    (%rax),%rdx
    2182:	73 99                	jae    211d <_ZL10trts_ecalljPv+0x2d>
    2184:	48 0f af 55 00       	imul   0x0(%rbp),%rdx
    2189:	48 01 d8             	add    %rbx,%rax
    218c:	80 7c 02 08 00       	cmpb   $0x0,0x8(%rdx,%rax,1)
    2191:	0f 85 b8 00 00 00    	jne    224f <_ZL10trts_ecalljPv+0x15f>
    2197:	b8 07 10 00 00       	mov    $0x1007,%eax
    219c:	eb 84                	jmp    2122 <_ZL10trts_ecalljPv+0x32>
    219e:	66 90                	xchg   %ax,%ax
    21a0:	e8 09 4e 01 00       	callq  16fae <get_thread_data>
    21a5:	48 89 c2             	mov    %rax,%rdx
    21a8:	b8 07 10 00 00       	mov    $0x1007,%eax
    21ad:	48 8b 4a 10          	mov    0x10(%rdx),%rcx
    21b1:	48 39 4a 08          	cmp    %rcx,0x8(%rdx)
    21b5:	0f 85 67 ff ff ff    	jne    2122 <_ZL10trts_ecalljPv+0x32>
    21bb:	48 8d 3d 5e 97 21 00 	lea    0x21975e(%rip),%rdi        # 21b920 <_ZL10g_ife_lock>
    21c2:	e8 79 59 00 00       	callq  7b40 <sgx_spin_lock>
    21c7:	0f b6 05 58 8e 21 00 	movzbl 0x218e58(%rip),%eax        # 21b026 <_ZL16g_is_first_ecall>
    21ce:	84 c0                	test   %al,%al
    21d0:	74 2f                	je     2201 <_ZL10trts_ecalljPv+0x111>
    21d2:	48 8d 05 6b 8c 21 00 	lea    0x218c6b(%rip),%rax        # 21ae44 <EDMM_supported>
    21d9:	8b 00                	mov    (%rax),%eax
    21db:	85 c0                	test   %eax,%eax
    21dd:	74 16                	je     21f5 <_ZL10trts_ecalljPv+0x105>
    21df:	48 8b 3d ea 8d 21 00 	mov    0x218dea(%rip),%rdi        # 21afd0 <_DYNAMIC+0x160>
    21e6:	e8 b5 19 00 00       	callq  3ba0 <change_protection>
    21eb:	85 c0                	test   %eax,%eax
    21ed:	89 c5                	mov    %eax,%ebp
    21ef:	0f 85 94 00 00 00    	jne    2289 <_ZL10trts_ecalljPv+0x199>
    21f5:	e8 e6 1c 00 00       	callq  3ee0 <init_global_object>
    21fa:	c6 05 25 8e 21 00 00 	movb   $0x0,0x218e25(%rip)        # 21b026 <_ZL16g_is_first_ecall>
    2201:	48 8d 3d 18 97 21 00 	lea    0x219718(%rip),%rdi        # 21b920 <_ZL10g_ife_lock>
    2208:	e8 93 59 00 00       	callq  7ba0 <sgx_spin_unlock>
    220d:	e9 f6 fe ff ff       	jmpq   2108 <_ZL10trts_ecalljPv+0x18>
    2212:	66 0f 1f 44 00 00    	nopw   0x0(%rax,%rax,1)
    2218:	83 fb fa             	cmp    $0xfffffffa,%ebx
    221b:	74 63                	je     2280 <_ZL10trts_ecalljPv+0x190>
    221d:	48 8d 1d bc 08 00 00 	lea    0x8bc(%rip),%rbx        # 2ae0 <do_run_switchless_tworker>
    2224:	0f ae e8             	lfence 
    2227:	4c 89 e7             	mov    %r12,%rdi
    222a:	48 89 d8             	mov    %rbx,%rax
    222d:	5b                   	pop    %rbx
    222e:	5d                   	pop    %rbp
    222f:	41 5c                	pop    %r12
    2231:	ff e0                	jmpq   *%rax
    2233:	0f 1f 44 00 00       	nopl   0x0(%rax,%rax,1)
    2238:	48 89 da             	mov    %rbx,%rdx
    223b:	b8 07 10 00 00       	mov    $0x1007,%eax
    2240:	48 c1 e2 04          	shl    $0x4,%rdx
    2244:	80 7c 15 10 00       	cmpb   $0x0,0x10(%rbp,%rdx,1)
    2249:	0f 85 d3 fe ff ff    	jne    2122 <_ZL10trts_ecalljPv+0x32>
    224f:	48 c1 e3 04          	shl    $0x4,%rbx
    2253:	31 f6                	xor    %esi,%esi
    2255:	48 8b 5c 1d 08       	mov    0x8(%rbp,%rbx,1),%rbx
    225a:	48 89 df             	mov    %rbx,%rdi
    225d:	e8 3e f0 ff ff       	callq  12a0 <sgx_is_within_enclave>
    2262:	85 c0                	test   %eax,%eax
    2264:	0f 84 d9 fe ff ff    	je     2143 <_ZL10trts_ecalljPv+0x53>
    226a:	0f ae e8             	lfence 
    226d:	4c 89 e7             	mov    %r12,%rdi
    2270:	48 89 d8             	mov    %rbx,%rax
    2273:	5b                   	pop    %rbx
    2274:	5d                   	pop    %rbp
    2275:	41 5c                	pop    %r12
    2277:	ff e0                	jmpq   *%rax
    2279:	0f 1f 80 00 00 00 00 	nopl   0x0(%rax)
    2280:	48 8d 1d 49 08 00 00 	lea    0x849(%rip),%rbx        # 2ad0 <do_init_switchless>
    2287:	eb 9b                	jmp    2224 <_ZL10trts_ecalljPv+0x134>
    2289:	48 8d 3d 90 96 21 00 	lea    0x219690(%rip),%rdi        # 21b920 <_ZL10g_ife_lock>
    2290:	e8 0b 59 00 00       	callq  7ba0 <sgx_spin_unlock>
    2295:	89 e8                	mov    %ebp,%eax
    2297:	e9 86 fe ff ff       	jmpq   2122 <_ZL10trts_ecalljPv+0x32>
    229c:	e8 09 50 01 00       	callq  172aa <abort>
    22a1:	66 2e 0f 1f 84 00 00 	nopw   %cs:0x0(%rax,%rax,1)
    22a8:	00 00 00 
    22ab:	0f 1f 44 00 00       	nopl   0x0(%rax,%rax,1)

00000000000022b0 <do_init_thread>:
    22b0:	41 57                	push   %r15
    22b2:	41 56                	push   %r14
    22b4:	ba a0 00 00 00       	mov    $0xa0,%edx
    22b9:	41 55                	push   %r13
    22bb:	41 54                	push   %r12
    22bd:	41 89 f5             	mov    %esi,%r13d
    22c0:	55                   	push   %rbp
    22c1:	53                   	push   %rbx
    22c2:	48 89 fd             	mov    %rdi,%rbp
    22c5:	48 83 ec 28          	sub    $0x28,%rsp
    22c9:	64 48 8b 04 25 28 00 	mov    %fs:0x28,%rax
    22d0:	00 00 
    22d2:	48 89 44 24 18       	mov    %rax,0x18(%rsp)
    22d7:	31 c0                	xor    %eax,%eax
    22d9:	48 8d 05 e0 57 01 00 	lea    0x157e0(%rip),%rax        # 17ac0 <g_global_data>
    22e0:	48 8b 58 30          	mov    0x30(%rax),%rbx
    22e4:	48 8d 70 30          	lea    0x30(%rax),%rsi
    22e8:	48 01 fb             	add    %rdi,%rbx
    22eb:	48 89 df             	mov    %rbx,%rdi
    22ee:	4c 8b 7b 28          	mov    0x28(%rbx),%r15
    22f2:	4c 8b 73 30          	mov    0x30(%rbx),%r14
    22f6:	4c 8b a3 98 00 00 00 	mov    0x98(%rbx),%r12
    22fd:	e8 7e 54 00 00       	callq  7780 <memcpy>
    2302:	48 89 e8             	mov    %rbp,%rax
    2305:	48 03 43 18          	add    0x18(%rbx),%rax
    2309:	48 8b 4b 08          	mov    0x8(%rbx),%rcx
    230d:	48 8b 53 10          	mov    0x10(%rbx),%rdx
    2311:	48 01 2b             	add    %rbp,(%rbx)
    2314:	48 01 6b 20          	add    %rbp,0x20(%rbx)
    2318:	4c 89 7b 28          	mov    %r15,0x28(%rbx)
    231c:	48 01 6b 58          	add    %rbp,0x58(%rbx)
    2320:	4c 89 73 30          	mov    %r14,0x30(%rbx)
    2324:	48 89 43 18          	mov    %rax,0x18(%rbx)
    2328:	48 89 83 98 00 00 00 	mov    %rax,0x98(%rbx)
    232f:	48 8d 84 0d 50 fd ff 	lea    -0x2b0(%rbp,%rcx,1),%rax
    2336:	ff 
    2337:	48 01 6b 50          	add    %rbp,0x50(%rbx)
    233b:	45 84 ed             	test   %r13b,%r13b
    233e:	48 89 43 08          	mov    %rax,0x8(%rbx)
    2342:	48 8d 84 15 50 fd ff 	lea    -0x2b0(%rbp,%rdx,1),%rax
    2349:	ff 
    234a:	48 89 43 10          	mov    %rax,0x10(%rbx)
    234e:	48 8d 05 e3 8a 21 00 	lea    0x218ae3(%rip),%rax        # 21ae38 <__intel_security_cookie>
    2355:	48 8b 00             	mov    (%rax),%rax
    2358:	48 89 85 58 fd fe ff 	mov    %rax,-0x102a8(%rbp)
    235f:	74 08                	je     2369 <do_init_thread+0xb9>
    2361:	48 c7 43 30 01 00 00 	movq   $0x1,0x30(%rbx)
    2368:	00 
    2369:	4d 85 e4             	test   %r12,%r12
    236c:	75 72                	jne    23e0 <do_init_thread+0x130>
    236e:	48 8d 05 cf 8a 21 00 	lea    0x218acf(%rip),%rax        # 21ae44 <EDMM_supported>
    2375:	8b 00                	mov    (%rax),%eax
    2377:	85 c0                	test   %eax,%eax
    2379:	75 75                	jne    23f0 <do_init_thread+0x140>
    237b:	48 8b 3d 4e 8c 21 00 	mov    0x218c4e(%rip),%rdi        # 21afd0 <_DYNAMIC+0x160>
    2382:	48 8d 54 24 10       	lea    0x10(%rsp),%rdx
    2387:	48 8d 74 24 08       	lea    0x8(%rsp),%rsi
    238c:	48 c7 44 24 08 00 00 	movq   $0x0,0x8(%rsp)
    2393:	00 00 
    2395:	48 c7 44 24 10 00 00 	movq   $0x0,0x10(%rsp)
    239c:	00 00 
    239e:	e8 8d 15 00 00       	callq  3930 <elf_tls_info>
    23a3:	85 c0                	test   %eax,%eax
    23a5:	ba 01 00 00 00       	mov    $0x1,%edx
    23aa:	75 0a                	jne    23b6 <do_init_thread+0x106>
    23ac:	48 83 7c 24 08 00    	cmpq   $0x0,0x8(%rsp)
    23b2:	75 5c                	jne    2410 <do_init_thread+0x160>
    23b4:	31 d2                	xor    %edx,%edx
    23b6:	48 8b 4c 24 18       	mov    0x18(%rsp),%rcx
    23bb:	64 48 33 0c 25 28 00 	xor    %fs:0x28,%rcx
    23c2:	00 00 
    23c4:	89 d0                	mov    %edx,%eax
    23c6:	0f 85 a5 00 00 00    	jne    2471 <do_init_thread+0x1c1>
    23cc:	48 83 c4 28          	add    $0x28,%rsp
    23d0:	5b                   	pop    %rbx
    23d1:	5d                   	pop    %rbp
    23d2:	41 5c                	pop    %r12
    23d4:	41 5d                	pop    %r13
    23d6:	41 5e                	pop    %r14
    23d8:	41 5f                	pop    %r15
    23da:	c3                   	retq   
    23db:	0f 1f 44 00 00       	nopl   0x0(%rax,%rax,1)
    23e0:	4c 89 a3 98 00 00 00 	mov    %r12,0x98(%rbx)
    23e7:	eb 92                	jmp    237b <do_init_thread+0xcb>
    23e9:	0f 1f 80 00 00 00 00 	nopl   0x0(%rax)
    23f0:	45 84 ed             	test   %r13b,%r13b
    23f3:	74 6b                	je     2460 <do_init_thread+0x1b0>
    23f5:	e8 16 f7 ff ff       	callq  1b10 <get_dynamic_stack_max_page>
    23fa:	89 c0                	mov    %eax,%eax
    23fc:	48 c1 e0 0c          	shl    $0xc,%rax
    2400:	48 01 83 98 00 00 00 	add    %rax,0x98(%rbx)
    2407:	e9 6f ff ff ff       	jmpq   237b <do_init_thread+0xcb>
    240c:	0f 1f 40 00          	nopl   0x0(%rax)
    2410:	48 8b 03             	mov    (%rbx),%rax
    2413:	48 8b 7b 50          	mov    0x50(%rbx),%rdi
    2417:	31 f6                	xor    %esi,%esi
    2419:	48 8d 90 ff 0f 00 00 	lea    0xfff(%rax),%rdx
    2420:	48 29 fa             	sub    %rdi,%rdx
    2423:	48 81 e7 00 f0 ff ff 	and    $0xfffffffffffff000,%rdi
    242a:	48 81 e2 00 f0 ff ff 	and    $0xfffffffffffff000,%rdx
    2431:	e8 7a 53 00 00       	callq  77b0 <memset>
    2436:	48 8b 7b 50          	mov    0x50(%rbx),%rdi
    243a:	48 8b 03             	mov    (%rbx),%rax
    243d:	48 8b 54 24 10       	mov    0x10(%rsp),%rdx
    2442:	48 29 f8             	sub    %rdi,%rax
    2445:	48 39 c2             	cmp    %rax,%rdx
    2448:	0f 87 66 ff ff ff    	ja     23b4 <do_init_thread+0x104>
    244e:	48 8b 74 24 08       	mov    0x8(%rsp),%rsi
    2453:	e8 28 53 00 00       	callq  7780 <memcpy>
    2458:	e9 57 ff ff ff       	jmpq   23b4 <do_init_thread+0x104>
    245d:	0f 1f 00             	nopl   (%rax)
    2460:	48 89 ef             	mov    %rbp,%rdi
    2463:	e8 d8 f5 ff ff       	callq  1a40 <is_dynamic_thread>
    2468:	85 c0                	test   %eax,%eax
    246a:	75 89                	jne    23f5 <do_init_thread+0x145>
    246c:	e9 0a ff ff ff       	jmpq   237b <do_init_thread+0xcb>
    2471:	e8 1a 1c 00 00       	callq  4090 <__stack_chk_fail>
    2476:	66 2e 0f 1f 84 00 00 	nopw   %cs:0x0(%rax,%rax,1)
    247d:	00 00 00 

0000000000002480 <do_ecall>:
    2480:	55                   	push   %rbp
    2481:	48 89 e5             	mov    %rsp,%rbp
    2484:	41 55                	push   %r13
    2486:	41 54                	push   %r12
    2488:	53                   	push   %rbx
    2489:	49 89 d5             	mov    %rdx,%r13
    248c:	89 fb                	mov    %edi,%ebx
    248e:	49 89 f4             	mov    %rsi,%r12
    2491:	48 83 ec 18          	sub    $0x18,%rsp
    2495:	64 48 8b 04 25 28 00 	mov    %fs:0x28,%rax
    249c:	00 00 
    249e:	48 89 45 d8          	mov    %rax,-0x28(%rbp)
    24a2:	31 c0                	xor    %eax,%eax
    24a4:	e8 d2 4a 01 00       	callq  16f7b <get_enclave_state>
    24a9:	83 f8 02             	cmp    $0x2,%eax
    24ac:	ba 01 00 00 00       	mov    $0x1,%edx
    24b1:	74 25                	je     24d8 <do_ecall+0x58>
    24b3:	48 8b 4d d8          	mov    -0x28(%rbp),%rcx
    24b7:	64 48 33 0c 25 28 00 	xor    %fs:0x28,%rcx
    24be:	00 00 
    24c0:	89 d0                	mov    %edx,%eax
    24c2:	0f 85 bb 00 00 00    	jne    2583 <do_ecall+0x103>
    24c8:	48 8d 65 e8          	lea    -0x18(%rbp),%rsp
    24cc:	5b                   	pop    %rbx
    24cd:	41 5c                	pop    %r12
    24cf:	41 5d                	pop    %r13
    24d1:	5d                   	pop    %rbp
    24d2:	c3                   	retq   
    24d3:	0f 1f 44 00 00       	nopl   0x0(%rax,%rax,1)
    24d8:	e8 d1 4a 01 00       	callq  16fae <get_thread_data>
    24dd:	48 85 c0             	test   %rax,%rax
    24e0:	74 3e                	je     2520 <do_ecall+0xa0>
    24e2:	48 8b 78 08          	mov    0x8(%rax),%rdi
    24e6:	48 39 78 10          	cmp    %rdi,0x10(%rax)
    24ea:	74 24                	je     2510 <do_ecall+0x90>
    24ec:	e8 bd 4a 01 00       	callq  16fae <get_thread_data>
    24f1:	48 8b 48 08          	mov    0x8(%rax),%rcx
    24f5:	48 39 48 10          	cmp    %rcx,0x10(%rax)
    24f9:	74 3d                	je     2538 <do_ecall+0xb8>
    24fb:	4c 89 e6             	mov    %r12,%rsi
    24fe:	89 df                	mov    %ebx,%edi
    2500:	e8 eb fb ff ff       	callq  20f0 <_ZL10trts_ecalljPv>
    2505:	89 c2                	mov    %eax,%edx
    2507:	eb aa                	jmp    24b3 <do_ecall+0x33>
    2509:	0f 1f 80 00 00 00 00 	nopl   0x0(%rax)
    2510:	48 8d 05 a9 55 01 00 	lea    0x155a9(%rip),%rax        # 17ac0 <g_global_data>
    2517:	48 8b 40 28          	mov    0x28(%rax),%rax
    251b:	48 85 c0             	test   %rax,%rax
    251e:	74 cc                	je     24ec <do_ecall+0x6c>
    2520:	31 f6                	xor    %esi,%esi
    2522:	4c 89 ef             	mov    %r13,%rdi
    2525:	e8 86 fd ff ff       	callq  22b0 <do_init_thread>
    252a:	85 c0                	test   %eax,%eax
    252c:	89 c2                	mov    %eax,%edx
    252e:	74 bc                	je     24ec <do_ecall+0x6c>
    2530:	eb 81                	jmp    24b3 <do_ecall+0x33>
    2532:	66 0f 1f 44 00 00    	nopw   0x0(%rax,%rax,1)
    2538:	49 89 e5             	mov    %rsp,%r13
    253b:	0f c7 f6             	rdrand %esi
    253e:	81 e6 ff 07 00 00    	and    $0x7ff,%esi
    2544:	83 c6 01             	add    $0x1,%esi
    2547:	48 8d 46 0f          	lea    0xf(%rsi),%rax
    254b:	25 f0 1f 00 00       	and    $0x1ff0,%eax
    2550:	48 29 c4             	sub    %rax,%rsp
    2553:	48 8d 05 ea 88 21 00 	lea    0x2188ea(%rip),%rax        # 21ae44 <EDMM_supported>
    255a:	8b 00                	mov    (%rax),%eax
    255c:	85 c0                	test   %eax,%eax
    255e:	75 08                	jne    2568 <do_ecall+0xe8>
    2560:	48 89 e7             	mov    %rsp,%rdi
    2563:	e8 78 f0 ff ff       	callq  15e0 <random_stack_notify_gdb>
    2568:	48 8d 3d 81 fb ff ff 	lea    -0x47f(%rip),%rdi        # 20f0 <_ZL10trts_ecalljPv>
    256f:	4c 89 e2             	mov    %r12,%rdx
    2572:	89 de                	mov    %ebx,%esi
    2574:	e8 67 fb ff ff       	callq  20e0 <_Z30_random_stack_noinline_wrapperI9_status_tJjPvEJRiRS1_EET_PFS4_DpT0_EDpOT1_.isra.0>
    2579:	89 c2                	mov    %eax,%edx
    257b:	4c 89 ec             	mov    %r13,%rsp
    257e:	e9 30 ff ff ff       	jmpq   24b3 <do_ecall+0x33>
    2583:	e8 08 1b 00 00       	callq  4090 <__stack_chk_fail>
    2588:	0f 1f 84 00 00 00 00 	nopl   0x0(%rax,%rax,1)
    258f:	00 

0000000000002590 <do_ecall_add_thread>:
    2590:	55                   	push   %rbp
    2591:	53                   	push   %rbx
    2592:	48 89 fb             	mov    %rdi,%rbx
    2595:	48 83 ec 18          	sub    $0x18,%rsp
    2599:	64 48 8b 04 25 28 00 	mov    %fs:0x28,%rax
    25a0:	00 00 
    25a2:	48 89 44 24 08       	mov    %rax,0x8(%rsp)
    25a7:	31 c0                	xor    %eax,%eax
    25a9:	e8 00 4a 01 00       	callq  16fae <get_thread_data>
    25ae:	48 85 c0             	test   %rax,%rax
    25b1:	0f 84 41 01 00 00    	je     26f8 <do_ecall_add_thread+0x168>
    25b7:	f6 40 30 01          	testb  $0x1,0x30(%rax)
    25bb:	0f 84 37 01 00 00    	je     26f8 <do_ecall_add_thread+0x168>
    25c1:	48 85 db             	test   %rbx,%rbx
    25c4:	0f 84 2e 01 00 00    	je     26f8 <do_ecall_add_thread+0x168>
    25ca:	be 08 00 00 00       	mov    $0x8,%esi
    25cf:	48 89 df             	mov    %rbx,%rdi
    25d2:	e8 19 ed ff ff       	callq  12f0 <sgx_is_outside_enclave>
    25d7:	85 c0                	test   %eax,%eax
    25d9:	0f 84 19 01 00 00    	je     26f8 <do_ecall_add_thread+0x168>
    25df:	48 8b 1b             	mov    (%rbx),%rbx
    25e2:	48 85 db             	test   %rbx,%rbx
    25e5:	0f 84 0d 01 00 00    	je     26f8 <do_ecall_add_thread+0x168>
    25eb:	0f ae e8             	lfence 
    25ee:	e8 bb 49 01 00       	callq  16fae <get_thread_data>
    25f3:	48 85 c0             	test   %rax,%rax
    25f6:	0f 84 fc 00 00 00    	je     26f8 <do_ecall_add_thread+0x168>
    25fc:	f6 40 30 01          	testb  $0x1,0x30(%rax)
    2600:	0f 84 f2 00 00 00    	je     26f8 <do_ecall_add_thread+0x168>
    2606:	48 83 3d 1a 93 21 00 	cmpq   $0x0,0x21931a(%rip)        # 21b928 <_ZL12g_tcs_cookie>
    260d:	00 
    260e:	0f 84 b4 00 00 00    	je     26c8 <do_ecall_add_thread+0x138>
    2614:	bf 10 00 00 00       	mov    $0x10,%edi
    2619:	e8 92 22 00 00       	callq  48b0 <dlmalloc>
    261e:	48 85 c0             	test   %rax,%rax
    2621:	0f 84 d1 00 00 00    	je     26f8 <do_ecall_add_thread+0x168>
    2627:	48 89 da             	mov    %rbx,%rdx
    262a:	48 33 15 f7 92 21 00 	xor    0x2192f7(%rip),%rdx        # 21b928 <_ZL12g_tcs_cookie>
    2631:	48 89 df             	mov    %rbx,%rdi
    2634:	48 89 10             	mov    %rdx,(%rax)
    2637:	48 8b 15 f2 92 21 00 	mov    0x2192f2(%rip),%rdx        # 21b930 <_ZL10g_tcs_node>
    263e:	48 89 05 eb 92 21 00 	mov    %rax,0x2192eb(%rip)        # 21b930 <_ZL10g_tcs_node>
    2645:	48 89 50 08          	mov    %rdx,0x8(%rax)
    2649:	e8 b2 f8 ff ff       	callq  1f00 <do_add_thread>
    264e:	89 c5                	mov    %eax,%ebp
    2650:	31 c0                	xor    %eax,%eax
    2652:	85 ed                	test   %ebp,%ebp
    2654:	0f 84 a3 00 00 00    	je     26fd <do_ecall_add_thread+0x16d>
    265a:	e8 4f 49 01 00       	callq  16fae <get_thread_data>
    265f:	48 85 c0             	test   %rax,%rax
    2662:	74 5b                	je     26bf <do_ecall_add_thread+0x12f>
    2664:	f6 40 30 01          	testb  $0x1,0x30(%rax)
    2668:	74 55                	je     26bf <do_ecall_add_thread+0x12f>
    266a:	48 8b 15 bf 92 21 00 	mov    0x2192bf(%rip),%rdx        # 21b930 <_ZL10g_tcs_node>
    2671:	48 85 d2             	test   %rdx,%rdx
    2674:	74 49                	je     26bf <do_ecall_add_thread+0x12f>
    2676:	48 8b 0d ab 92 21 00 	mov    0x2192ab(%rip),%rcx        # 21b928 <_ZL12g_tcs_cookie>
    267d:	48 89 c8             	mov    %rcx,%rax
    2680:	48 33 02             	xor    (%rdx),%rax
    2683:	48 39 c3             	cmp    %rax,%rbx
    2686:	48 8b 42 08          	mov    0x8(%rdx),%rax
    268a:	0f 84 b5 00 00 00    	je     2745 <do_ecall_add_thread+0x1b5>
    2690:	48 85 c0             	test   %rax,%rax
    2693:	74 2a                	je     26bf <do_ecall_add_thread+0x12f>
    2695:	48 89 ce             	mov    %rcx,%rsi
    2698:	48 33 30             	xor    (%rax),%rsi
    269b:	48 39 f3             	cmp    %rsi,%rbx
    269e:	75 16                	jne    26b6 <do_ecall_add_thread+0x126>
    26a0:	eb 72                	jmp    2714 <do_ecall_add_thread+0x184>
    26a2:	66 0f 1f 44 00 00    	nopw   0x0(%rax,%rax,1)
    26a8:	48 89 ca             	mov    %rcx,%rdx
    26ab:	48 33 17             	xor    (%rdi),%rdx
    26ae:	48 39 d3             	cmp    %rdx,%rbx
    26b1:	74 67                	je     271a <do_ecall_add_thread+0x18a>
    26b3:	48 89 f8             	mov    %rdi,%rax
    26b6:	48 8b 78 08          	mov    0x8(%rax),%rdi
    26ba:	48 85 ff             	test   %rdi,%rdi
    26bd:	75 e9                	jne    26a8 <do_ecall_add_thread+0x118>
    26bf:	89 e8                	mov    %ebp,%eax
    26c1:	eb 3a                	jmp    26fd <do_ecall_add_thread+0x16d>
    26c3:	0f 1f 44 00 00       	nopl   0x0(%rax,%rax,1)
    26c8:	48 c7 04 24 00 00 00 	movq   $0x0,(%rsp)
    26cf:	00 
    26d0:	48 89 e5             	mov    %rsp,%rbp
    26d3:	eb 0c                	jmp    26e1 <do_ecall_add_thread+0x151>
    26d5:	0f 1f 00             	nopl   (%rax)
    26d8:	48 8b 04 24          	mov    (%rsp),%rax
    26dc:	48 85 c0             	test   %rax,%rax
    26df:	75 4a                	jne    272b <do_ecall_add_thread+0x19b>
    26e1:	be 08 00 00 00       	mov    $0x8,%esi
    26e6:	48 89 ef             	mov    %rbp,%rdi
    26e9:	e8 a2 ed ff ff       	callq  1490 <sgx_read_rand>
    26ee:	85 c0                	test   %eax,%eax
    26f0:	74 e6                	je     26d8 <do_ecall_add_thread+0x148>
    26f2:	66 0f 1f 44 00 00    	nopw   0x0(%rax,%rax,1)
    26f8:	b8 01 00 00 00       	mov    $0x1,%eax
    26fd:	48 8b 4c 24 08       	mov    0x8(%rsp),%rcx
    2702:	64 48 33 0c 25 28 00 	xor    %fs:0x28,%rcx
    2709:	00 00 
    270b:	75 4b                	jne    2758 <do_ecall_add_thread+0x1c8>
    270d:	48 83 c4 18          	add    $0x18,%rsp
    2711:	5b                   	pop    %rbx
    2712:	5d                   	pop    %rbp
    2713:	c3                   	retq   
    2714:	48 89 c7             	mov    %rax,%rdi
    2717:	48 89 d0             	mov    %rdx,%rax
    271a:	48 8b 57 08          	mov    0x8(%rdi),%rdx
    271e:	48 89 50 08          	mov    %rdx,0x8(%rax)
    2722:	e8 69 3b 00 00       	callq  6290 <dlfree>
    2727:	89 e8                	mov    %ebp,%eax
    2729:	eb d2                	jmp    26fd <do_ecall_add_thread+0x16d>
    272b:	48 83 3d f5 91 21 00 	cmpq   $0x0,0x2191f5(%rip)        # 21b928 <_ZL12g_tcs_cookie>
    2732:	00 
    2733:	0f 85 db fe ff ff    	jne    2614 <do_ecall_add_thread+0x84>
    2739:	48 89 05 e8 91 21 00 	mov    %rax,0x2191e8(%rip)        # 21b928 <_ZL12g_tcs_cookie>
    2740:	e9 cf fe ff ff       	jmpq   2614 <do_ecall_add_thread+0x84>
    2745:	48 89 d7             	mov    %rdx,%rdi
    2748:	48 89 05 e1 91 21 00 	mov    %rax,0x2191e1(%rip)        # 21b930 <_ZL10g_tcs_node>
    274f:	e8 3c 3b 00 00       	callq  6290 <dlfree>
    2754:	89 e8                	mov    %ebp,%eax
    2756:	eb a5                	jmp    26fd <do_ecall_add_thread+0x16d>
    2758:	e8 33 19 00 00       	callq  4090 <__stack_chk_fail>
    275d:	0f 1f 00             	nopl   (%rax)

0000000000002760 <do_uninit_enclave>:
    2760:	48 8d 05 dd 86 21 00 	lea    0x2186dd(%rip),%rax        # 21ae44 <EDMM_supported>
    2767:	41 54                	push   %r12
    2769:	55                   	push   %rbp
    276a:	53                   	push   %rbx
    276b:	48 89 fd             	mov    %rdi,%rbp
    276e:	8b 00                	mov    (%rax),%eax
    2770:	85 c0                	test   %eax,%eax
    2772:	0f 85 88 00 00 00    	jne    2800 <do_uninit_enclave+0xa0>
    2778:	48 8b 1d b1 91 21 00 	mov    0x2191b1(%rip),%rbx        # 21b930 <_ZL10g_tcs_node>
    277f:	48 c7 05 a6 91 21 00 	movq   $0x0,0x2191a6(%rip)        # 21b930 <_ZL10g_tcs_node>
    2786:	00 00 00 00 
    278a:	48 85 db             	test   %rbx,%rbx
    278d:	74 39                	je     27c8 <do_uninit_enclave+0x68>
    278f:	90                   	nop
    2790:	48 8b 33             	mov    (%rbx),%rsi
    2793:	48 33 35 8e 91 21 00 	xor    0x21918e(%rip),%rsi        # 21b928 <_ZL12g_tcs_cookie>
    279a:	48 39 f5             	cmp    %rsi,%rbp
    279d:	74 15                	je     27b4 <do_uninit_enclave+0x54>
    279f:	48 8d 96 00 10 00 00 	lea    0x1000(%rsi),%rdx
    27a6:	bf 10 04 00 00       	mov    $0x410,%edi
    27ab:	e8 c0 f3 ff ff       	callq  1b70 <sgx_accept_forward>
    27b0:	85 c0                	test   %eax,%eax
    27b2:	75 60                	jne    2814 <do_uninit_enclave+0xb4>
    27b4:	4c 8b 63 08          	mov    0x8(%rbx),%r12
    27b8:	48 89 df             	mov    %rbx,%rdi
    27bb:	e8 d0 3a 00 00       	callq  6290 <dlfree>
    27c0:	4d 85 e4             	test   %r12,%r12
    27c3:	4c 89 e3             	mov    %r12,%rbx
    27c6:	75 c8                	jne    2790 <do_uninit_enclave+0x30>
    27c8:	48 8d 3d 51 91 21 00 	lea    0x219151(%rip),%rdi        # 21b920 <_ZL10g_ife_lock>
    27cf:	e8 6c 53 00 00       	callq  7b40 <sgx_spin_lock>
    27d4:	0f b6 05 4b 88 21 00 	movzbl 0x21884b(%rip),%eax        # 21b026 <_ZL16g_is_first_ecall>
    27db:	84 c0                	test   %al,%al
    27dd:	74 41                	je     2820 <do_uninit_enclave+0xc0>
    27df:	48 8d 3d 3a 91 21 00 	lea    0x21913a(%rip),%rdi        # 21b920 <_ZL10g_ife_lock>
    27e6:	e8 b5 53 00 00       	callq  7ba0 <sgx_spin_unlock>
    27eb:	bf 03 00 00 00       	mov    $0x3,%edi
    27f0:	e8 93 47 01 00       	callq  16f88 <set_enclave_state>
    27f5:	5b                   	pop    %rbx
    27f6:	31 c0                	xor    %eax,%eax
    27f8:	5d                   	pop    %rbp
    27f9:	41 5c                	pop    %r12
    27fb:	c3                   	retq   
    27fc:	0f 1f 40 00          	nopl   0x0(%rax)
    2800:	e8 a9 47 01 00       	callq  16fae <get_thread_data>
    2805:	48 85 c0             	test   %rax,%rax
    2808:	74 0a                	je     2814 <do_uninit_enclave+0xb4>
    280a:	f6 40 30 01          	testb  $0x1,0x30(%rax)
    280e:	0f 85 64 ff ff ff    	jne    2778 <do_uninit_enclave+0x18>
    2814:	5b                   	pop    %rbx
    2815:	b8 01 00 00 00       	mov    $0x1,%eax
    281a:	5d                   	pop    %rbp
    281b:	41 5c                	pop    %r12
    281d:	c3                   	retq   
    281e:	66 90                	xchg   %ax,%ax
    2820:	e8 6b 17 00 00       	callq  3f90 <uninit_global_object>
    2825:	eb b8                	jmp    27df <do_uninit_enclave+0x7f>
    2827:	66 0f 1f 84 00 00 00 	nopw   0x0(%rax,%rax,1)
    282e:	00 00 

0000000000002830 <trts_mprotect>:
    2830:	4c 8d 54 24 08       	lea    0x8(%rsp),%r10
    2835:	48 83 e4 c0          	and    $0xffffffffffffffc0,%rsp
    2839:	41 ff 72 f8          	pushq  -0x8(%r10)
    283d:	55                   	push   %rbp
    283e:	48 89 e5             	mov    %rsp,%rbp
    2841:	41 56                	push   %r14
    2843:	41 55                	push   %r13
    2845:	41 54                	push   %r12
    2847:	41 52                	push   %r10
    2849:	53                   	push   %rbx
    284a:	48 81 ec 88 00 00 00 	sub    $0x88,%rsp
    2851:	64 48 8b 04 25 28 00 	mov    %fs:0x28,%rax
    2858:	00 00 
    285a:	48 89 45 c8          	mov    %rax,-0x38(%rbp)
    285e:	31 c0                	xor    %eax,%eax
    2860:	f7 c7 ff 0f 00 00    	test   $0xfff,%edi
    2866:	b8 02 00 00 00       	mov    $0x2,%eax
    286b:	75 08                	jne    2875 <trts_mprotect+0x45>
    286d:	48 85 f6             	test   %rsi,%rsi
    2870:	49 89 f4             	mov    %rsi,%r12
    2873:	75 2b                	jne    28a0 <trts_mprotect+0x70>
    2875:	48 8b 4d c8          	mov    -0x38(%rbp),%rcx
    2879:	64 48 33 0c 25 28 00 	xor    %fs:0x28,%rcx
    2880:	00 00 
    2882:	0f 85 b6 00 00 00    	jne    293e <trts_mprotect+0x10e>
    2888:	48 81 c4 88 00 00 00 	add    $0x88,%rsp
    288f:	5b                   	pop    %rbx
    2890:	41 5a                	pop    %r10
    2892:	41 5c                	pop    %r12
    2894:	41 5d                	pop    %r13
    2896:	41 5e                	pop    %r14
    2898:	5d                   	pop    %rbp
    2899:	49 8d 62 f8          	lea    -0x8(%r10),%rsp
    289d:	c3                   	retq   
    289e:	66 90                	xchg   %ax,%ax
    28a0:	f7 c6 ff 0f 00 00    	test   $0xfff,%esi
    28a6:	75 cd                	jne    2875 <trts_mprotect+0x45>
    28a8:	48 8d 05 91 85 21 00 	lea    0x218591(%rip),%rax        # 21ae40 <g_sdk_version>
    28af:	48 89 fb             	mov    %rdi,%rbx
    28b2:	49 89 d6             	mov    %rdx,%r14
    28b5:	83 38 01             	cmpl   $0x1,(%rax)
    28b8:	74 76                	je     2930 <trts_mprotect+0x100>
    28ba:	4c 8d ad 50 ff ff ff 	lea    -0xb0(%rbp),%r13
    28c1:	4c 89 f0             	mov    %r14,%rax
    28c4:	31 f6                	xor    %esi,%esi
    28c6:	48 0d 20 02 00 00    	or     $0x220,%rax
    28cc:	ba 38 00 00 00       	mov    $0x38,%edx
    28d1:	49 01 dc             	add    %rbx,%r12
    28d4:	49 8d 7d 08          	lea    0x8(%r13),%rdi
    28d8:	48 89 85 50 ff ff ff 	mov    %rax,-0xb0(%rbp)
    28df:	41 83 e6 06          	and    $0x6,%r14d
    28e3:	e8 c8 4e 00 00       	callq  77b0 <memset>
    28e8:	4c 39 e3             	cmp    %r12,%rbx
    28eb:	73 33                	jae    2920 <trts_mprotect+0xf0>
    28ed:	0f 1f 00             	nopl   (%rax)
    28f0:	48 89 de             	mov    %rbx,%rsi
    28f3:	4c 89 ef             	mov    %r13,%rdi
    28f6:	e8 7b 49 01 00       	callq  17276 <do_emodpe>
    28fb:	49 83 fe 06          	cmp    $0x6,%r14
    28ff:	74 13                	je     2914 <trts_mprotect+0xe4>
    2901:	48 89 de             	mov    %rbx,%rsi
    2904:	4c 89 ef             	mov    %r13,%rdi
    2907:	e8 50 49 01 00       	callq  1725c <do_eaccept>
    290c:	85 c0                	test   %eax,%eax
    290e:	0f 85 61 ff ff ff    	jne    2875 <trts_mprotect+0x45>
    2914:	48 81 c3 00 10 00 00 	add    $0x1000,%rbx
    291b:	4c 39 e3             	cmp    %r12,%rbx
    291e:	72 d0                	jb     28f0 <trts_mprotect+0xc0>
    2920:	31 c0                	xor    %eax,%eax
    2922:	e9 4e ff ff ff       	jmpq   2875 <trts_mprotect+0x45>
    2927:	66 0f 1f 84 00 00 00 	nopw   0x0(%rax,%rax,1)
    292e:	00 00 
    2930:	e8 1b 00 00 00       	callq  2950 <change_permissions_ocall>
    2935:	85 c0                	test   %eax,%eax
    2937:	74 81                	je     28ba <trts_mprotect+0x8a>
    2939:	e9 37 ff ff ff       	jmpq   2875 <trts_mprotect+0x45>
    293e:	e8 4d 17 00 00       	callq  4090 <__stack_chk_fail>
    2943:	66 2e 0f 1f 84 00 00 	nopw   %cs:0x0(%rax,%rax,1)
    294a:	00 00 00 
    294d:	0f 1f 00             	nopl   (%rax)

0000000000002950 <change_permissions_ocall>:
    2950:	41 54                	push   %r12
    2952:	55                   	push   %rbp
    2953:	49 89 fc             	mov    %rdi,%r12
    2956:	53                   	push   %rbx
    2957:	bf 18 00 00 00       	mov    $0x18,%edi
    295c:	48 89 f5             	mov    %rsi,%rbp
    295f:	48 89 d3             	mov    %rdx,%rbx
    2962:	e8 d9 e9 ff ff       	callq  1340 <sgx_ocalloc>
    2967:	48 85 c0             	test   %rax,%rax
    296a:	74 2c                	je     2998 <change_permissions_ocall+0x48>
    296c:	4c 89 20             	mov    %r12,(%rax)
    296f:	48 89 68 08          	mov    %rbp,0x8(%rax)
    2973:	48 89 c6             	mov    %rax,%rsi
    2976:	48 89 58 10          	mov    %rbx,0x10(%rax)
    297a:	bf fc ff ff ff       	mov    $0xfffffffc,%edi
    297f:	e8 2c 00 00 00       	callq  29b0 <sgx_ocall>
    2984:	89 c3                	mov    %eax,%ebx
    2986:	e8 a5 ea ff ff       	callq  1430 <sgx_ocfree>
    298b:	89 d8                	mov    %ebx,%eax
    298d:	5b                   	pop    %rbx
    298e:	5d                   	pop    %rbp
    298f:	41 5c                	pop    %r12
    2991:	c3                   	retq   
    2992:	66 0f 1f 44 00 00    	nopw   0x0(%rax,%rax,1)
    2998:	e8 93 ea ff ff       	callq  1430 <sgx_ocfree>
    299d:	5b                   	pop    %rbx
    299e:	b8 01 00 00 00       	mov    $0x1,%eax
    29a3:	5d                   	pop    %rbp
    29a4:	41 5c                	pop    %r12
    29a6:	c3                   	retq   
    29a7:	66 0f 1f 84 00 00 00 	nopw   0x0(%rax,%rax,1)
    29ae:	00 00 

00000000000029b0 <sgx_ocall>:
    29b0:	8d 47 05             	lea    0x5(%rdi),%eax
    29b3:	83 f8 03             	cmp    $0x3,%eax
    29b6:	76 18                	jbe    29d0 <sgx_ocall+0x20>
    29b8:	85 ff                	test   %edi,%edi
    29ba:	74 14                	je     29d0 <sgx_ocall+0x20>
    29bc:	48 8d 15 5d 49 01 00 	lea    0x1495d(%rip),%rdx        # 17320 <g_dyn_entry_table>
    29c3:	89 f8                	mov    %edi,%eax
    29c5:	48 3b 02             	cmp    (%rdx),%rax
    29c8:	72 06                	jb     29d0 <sgx_ocall+0x20>
    29ca:	b8 01 10 00 00       	mov    $0x1001,%eax
    29cf:	c3                   	retq   
    29d0:	e9 da 47 01 00       	jmpq   171af <__morestack>
    29d5:	66 2e 0f 1f 84 00 00 	nopw   %cs:0x0(%rax,%rax,1)
    29dc:	00 00 00 
    29df:	90                   	nop

00000000000029e0 <update_ocall_lastsp>:
    29e0:	53                   	push   %rbx
    29e1:	48 89 fb             	mov    %rdi,%rbx
    29e4:	e8 c5 45 01 00       	callq  16fae <get_thread_data>
    29e9:	48 8b 50 08          	mov    0x8(%rax),%rdx
    29ed:	48 3b 50 10          	cmp    0x10(%rax),%rdx
    29f1:	48 89 53 30          	mov    %rdx,0x30(%rbx)
    29f5:	74 21                	je     2a18 <update_ocall_lastsp+0x38>
    29f7:	48 8b b2 90 00 00 00 	mov    0x90(%rdx),%rsi
    29fe:	48 8d 4e 01          	lea    0x1(%rsi),%rcx
    2a02:	48 89 8b 90 00 00 00 	mov    %rcx,0x90(%rbx)
    2a09:	48 89 58 08          	mov    %rbx,0x8(%rax)
    2a0d:	48 89 d0             	mov    %rdx,%rax
    2a10:	5b                   	pop    %rbx
    2a11:	c3                   	retq   
    2a12:	66 0f 1f 44 00 00    	nopw   0x0(%rax,%rax,1)
    2a18:	48 c7 83 90 00 00 00 	movq   $0x1,0x90(%rbx)
    2a1f:	01 00 00 00 
    2a23:	48 89 58 08          	mov    %rbx,0x8(%rax)
    2a27:	48 89 d0             	mov    %rdx,%rax
    2a2a:	5b                   	pop    %rbx
    2a2b:	c3                   	retq   
    2a2c:	0f 1f 40 00          	nopl   0x0(%rax)

0000000000002a30 <do_oret>:
    2a30:	53                   	push   %rbx
    2a31:	48 89 fb             	mov    %rdi,%rbx
    2a34:	48 83 ec 10          	sub    $0x10,%rsp
    2a38:	64 48 8b 04 25 28 00 	mov    %fs:0x28,%rax
    2a3f:	00 00 
    2a41:	48 89 44 24 08       	mov    %rax,0x8(%rsp)
    2a46:	31 c0                	xor    %eax,%eax
    2a48:	e8 61 45 01 00       	callq  16fae <get_thread_data>
    2a4d:	48 8b 78 08          	mov    0x8(%rax),%rdi
    2a51:	48 85 ff             	test   %rdi,%rdi
    2a54:	48 89 3c 24          	mov    %rdi,(%rsp)
    2a58:	74 26                	je     2a80 <do_oret+0x50>
    2a5a:	48 39 e7             	cmp    %rsp,%rdi
    2a5d:	76 21                	jbe    2a80 <do_oret+0x50>
    2a5f:	48 8b 50 10          	mov    0x10(%rax),%rdx
    2a63:	48 8d 8a 10 ff ff ff 	lea    -0xf0(%rdx),%rcx
    2a6a:	48 39 cf             	cmp    %rcx,%rdi
    2a6d:	77 11                	ja     2a80 <do_oret+0x50>
    2a6f:	48 81 7f 20 44 49 43 	cmpq   $0x4f434944,0x20(%rdi)
    2a76:	4f 
    2a77:	74 27                	je     2aa0 <do_oret+0x70>
    2a79:	0f 1f 80 00 00 00 00 	nopl   0x0(%rax)
    2a80:	48 8b 74 24 08       	mov    0x8(%rsp),%rsi
    2a85:	64 48 33 34 25 28 00 	xor    %fs:0x28,%rsi
    2a8c:	00 00 
    2a8e:	b8 01 00 00 00       	mov    $0x1,%eax
    2a93:	75 27                	jne    2abc <do_oret+0x8c>
    2a95:	48 83 c4 10          	add    $0x10,%rsp
    2a99:	5b                   	pop    %rbx
    2a9a:	c3                   	retq   
    2a9b:	0f 1f 44 00 00       	nopl   0x0(%rax,%rax,1)
    2aa0:	48 8b 4f 30          	mov    0x30(%rdi),%rcx
    2aa4:	48 39 ca             	cmp    %rcx,%rdx
    2aa7:	72 d7                	jb     2a80 <do_oret+0x50>
    2aa9:	48 39 cf             	cmp    %rcx,%rdi
    2aac:	73 d2                	jae    2a80 <do_oret+0x50>
    2aae:	48 89 48 08          	mov    %rcx,0x8(%rax)
    2ab2:	48 89 de             	mov    %rbx,%rsi
    2ab5:	e8 04 47 01 00       	callq  171be <asm_oret>
    2aba:	eb c4                	jmp    2a80 <do_oret+0x50>
    2abc:	e8 cf 15 00 00       	callq  4090 <__stack_chk_fail>
    2ac1:	66 2e 0f 1f 84 00 00 	nopw   %cs:0x0(%rax,%rax,1)
    2ac8:	00 00 00 
    2acb:	0f 1f 44 00 00       	nopl   0x0(%rax,%rax,1)

0000000000002ad0 <do_init_switchless>:
    2ad0:	b8 01 00 00 00       	mov    $0x1,%eax
    2ad5:	c3                   	retq   
    2ad6:	66 2e 0f 1f 84 00 00 	nopw   %cs:0x0(%rax,%rax,1)
    2add:	00 00 00 

0000000000002ae0 <do_run_switchless_tworker>:
    2ae0:	b8 01 00 00 00       	mov    $0x1,%eax
    2ae5:	c3                   	retq   
    2ae6:	66 2e 0f 1f 84 00 00 	nopw   %cs:0x0(%rax,%rax,1)
    2aed:	00 00 00 

0000000000002af0 <trim_range_ocall>:
    2af0:	55                   	push   %rbp
    2af1:	53                   	push   %rbx
    2af2:	48 89 fd             	mov    %rdi,%rbp
    2af5:	bf 10 00 00 00       	mov    $0x10,%edi
    2afa:	48 89 f3             	mov    %rsi,%rbx
    2afd:	48 83 ec 08          	sub    $0x8,%rsp
    2b01:	e8 3a e8 ff ff       	callq  1340 <sgx_ocalloc>
    2b06:	48 85 c0             	test   %rax,%rax
    2b09:	74 25                	je     2b30 <trim_range_ocall+0x40>
    2b0b:	48 89 28             	mov    %rbp,(%rax)
    2b0e:	48 89 58 08          	mov    %rbx,0x8(%rax)
    2b12:	48 89 c6             	mov    %rax,%rsi
    2b15:	bf fe ff ff ff       	mov    $0xfffffffe,%edi
    2b1a:	e8 91 fe ff ff       	callq  29b0 <sgx_ocall>
    2b1f:	89 c3                	mov    %eax,%ebx
    2b21:	e8 0a e9 ff ff       	callq  1430 <sgx_ocfree>
    2b26:	48 83 c4 08          	add    $0x8,%rsp
    2b2a:	89 d8                	mov    %ebx,%eax
    2b2c:	5b                   	pop    %rbx
    2b2d:	5d                   	pop    %rbp
    2b2e:	c3                   	retq   
    2b2f:	90                   	nop
    2b30:	e8 fb e8 ff ff       	callq  1430 <sgx_ocfree>
    2b35:	48 83 c4 08          	add    $0x8,%rsp
    2b39:	b8 01 00 00 00       	mov    $0x1,%eax
    2b3e:	5b                   	pop    %rbx
    2b3f:	5d                   	pop    %rbp
    2b40:	c3                   	retq   
    2b41:	66 2e 0f 1f 84 00 00 	nopw   %cs:0x0(%rax,%rax,1)
    2b48:	00 00 00 
    2b4b:	0f 1f 44 00 00       	nopl   0x0(%rax,%rax,1)

0000000000002b50 <trim_range_commit_ocall>:
    2b50:	53                   	push   %rbx
    2b51:	48 89 fb             	mov    %rdi,%rbx
    2b54:	bf 08 00 00 00       	mov    $0x8,%edi
    2b59:	e8 e2 e7 ff ff       	callq  1340 <sgx_ocalloc>
    2b5e:	48 85 c0             	test   %rax,%rax
    2b61:	74 1d                	je     2b80 <trim_range_commit_ocall+0x30>
    2b63:	48 89 18             	mov    %rbx,(%rax)
    2b66:	48 89 c6             	mov    %rax,%rsi
    2b69:	bf fd ff ff ff       	mov    $0xfffffffd,%edi
    2b6e:	e8 3d fe ff ff       	callq  29b0 <sgx_ocall>
    2b73:	89 c3                	mov    %eax,%ebx
    2b75:	e8 b6 e8 ff ff       	callq  1430 <sgx_ocfree>
    2b7a:	89 d8                	mov    %ebx,%eax
    2b7c:	5b                   	pop    %rbx
    2b7d:	c3                   	retq   
    2b7e:	66 90                	xchg   %ax,%ax
    2b80:	e8 ab e8 ff ff       	callq  1430 <sgx_ocfree>
    2b85:	b8 01 00 00 00       	mov    $0x1,%eax
    2b8a:	5b                   	pop    %rbx
    2b8b:	c3                   	retq   
    2b8c:	0f 1f 40 00          	nopl   0x0(%rax)

0000000000002b90 <get_enclave_size>:
    2b90:	48 8d 05 29 4f 01 00 	lea    0x14f29(%rip),%rax        # 17ac0 <g_global_data>
    2b97:	48 8b 00             	mov    (%rax),%rax
    2b9a:	c3                   	retq   
    2b9b:	0f 1f 44 00 00       	nopl   0x0(%rax,%rax,1)

0000000000002ba0 <get_enclave_end>:
    2ba0:	48 83 ec 08          	sub    $0x8,%rsp
    2ba4:	e8 ca 43 01 00       	callq  16f73 <get_enclave_base>
    2ba9:	48 8d 15 10 4f 01 00 	lea    0x14f10(%rip),%rdx        # 17ac0 <g_global_data>
    2bb0:	48 8b 12             	mov    (%rdx),%rdx
    2bb3:	48 83 c4 08          	add    $0x8,%rsp
    2bb7:	48 8d 44 10 ff       	lea    -0x1(%rax,%rdx,1),%rax
    2bbc:	c3                   	retq   
    2bbd:	0f 1f 00             	nopl   (%rax)

0000000000002bc0 <get_heap_base>:
    2bc0:	48 8d 05 f9 4e 01 00 	lea    0x14ef9(%rip),%rax        # 17ac0 <g_global_data>
    2bc7:	48 8b 40 08          	mov    0x8(%rax),%rax
    2bcb:	48 03 05 fe 83 21 00 	add    0x2183fe(%rip),%rax        # 21afd0 <_DYNAMIC+0x160>
    2bd2:	c3                   	retq   
    2bd3:	66 2e 0f 1f 84 00 00 	nopw   %cs:0x0(%rax,%rax,1)
    2bda:	00 00 00 
    2bdd:	0f 1f 00             	nopl   (%rax)

0000000000002be0 <get_heap_size>:
    2be0:	48 8d 15 5d 82 21 00 	lea    0x21825d(%rip),%rdx        # 21ae44 <EDMM_supported>
    2be7:	48 8d 35 d2 4e 01 00 	lea    0x14ed2(%rip),%rsi        # 17ac0 <g_global_data>
    2bee:	8b 12                	mov    (%rdx),%edx
    2bf0:	48 8b 46 10          	mov    0x10(%rsi),%rax
    2bf4:	85 d2                	test   %edx,%edx
    2bf6:	74 52                	je     2c4a <get_heap_size+0x6a>
    2bf8:	8b 96 18 01 00 00    	mov    0x118(%rsi),%edx
    2bfe:	85 d2                	test   %edx,%edx
    2c00:	74 48                	je     2c4a <get_heap_size+0x6a>
    2c02:	31 c9                	xor    %ecx,%ecx
    2c04:	eb 17                	jmp    2c1d <get_heap_size+0x3d>
    2c06:	66 2e 0f 1f 84 00 00 	nopw   %cs:0x0(%rax,%rax,1)
    2c0d:	00 00 00 
    2c10:	8b 96 18 01 00 00    	mov    0x118(%rsi),%edx
    2c16:	83 c1 01             	add    $0x1,%ecx
    2c19:	39 ca                	cmp    %ecx,%edx
    2c1b:	76 2d                	jbe    2c4a <get_heap_size+0x6a>
    2c1d:	89 ca                	mov    %ecx,%edx
    2c1f:	48 83 c2 09          	add    $0x9,%rdx
    2c23:	48 c1 e2 05          	shl    $0x5,%rdx
    2c27:	48 01 f2             	add    %rsi,%rdx
    2c2a:	0f b7 3a             	movzwl (%rdx),%edi
    2c2d:	66 83 ff 03          	cmp    $0x3,%di
    2c31:	75 dd                	jne    2c10 <get_heap_size+0x30>
    2c33:	8b 52 04             	mov    0x4(%rdx),%edx
    2c36:	83 c1 01             	add    $0x1,%ecx
    2c39:	48 c1 e2 0c          	shl    $0xc,%rdx
    2c3d:	48 01 d0             	add    %rdx,%rax
    2c40:	8b 96 18 01 00 00    	mov    0x118(%rsi),%edx
    2c46:	39 ca                	cmp    %ecx,%edx
    2c48:	77 d3                	ja     2c1d <get_heap_size+0x3d>
    2c4a:	f3 c3                	repz retq 
    2c4c:	0f 1f 40 00          	nopl   0x0(%rax)

0000000000002c50 <get_heap_min_size>:
    2c50:	48 8d 0d 69 4e 01 00 	lea    0x14e69(%rip),%rcx        # 17ac0 <g_global_data>
    2c57:	8b 81 18 01 00 00    	mov    0x118(%rcx),%eax
    2c5d:	85 c0                	test   %eax,%eax
    2c5f:	74 3a                	je     2c9b <get_heap_min_size+0x4b>
    2c61:	0f b7 81 20 01 00 00 	movzwl 0x120(%rcx),%eax
    2c68:	66 83 f8 01          	cmp    $0x1,%ax
    2c6c:	74 30                	je     2c9e <get_heap_min_size+0x4e>
    2c6e:	31 d2                	xor    %edx,%edx
    2c70:	eb 1c                	jmp    2c8e <get_heap_min_size+0x3e>
    2c72:	66 0f 1f 44 00 00    	nopw   0x0(%rax,%rax,1)
    2c78:	89 d6                	mov    %edx,%esi
    2c7a:	48 8d 46 09          	lea    0x9(%rsi),%rax
    2c7e:	48 c1 e0 05          	shl    $0x5,%rax
    2c82:	48 01 c8             	add    %rcx,%rax
    2c85:	0f b7 00             	movzwl (%rax),%eax
    2c88:	66 83 f8 01          	cmp    $0x1,%ax
    2c8c:	74 12                	je     2ca0 <get_heap_min_size+0x50>
    2c8e:	8b 81 18 01 00 00    	mov    0x118(%rcx),%eax
    2c94:	83 c2 01             	add    $0x1,%edx
    2c97:	39 d0                	cmp    %edx,%eax
    2c99:	77 dd                	ja     2c78 <get_heap_min_size+0x28>
    2c9b:	31 c0                	xor    %eax,%eax
    2c9d:	c3                   	retq   
    2c9e:	31 f6                	xor    %esi,%esi
    2ca0:	48 83 c6 09          	add    $0x9,%rsi
    2ca4:	48 c1 e6 05          	shl    $0x5,%rsi
    2ca8:	48 01 f1             	add    %rsi,%rcx
    2cab:	8b 41 04             	mov    0x4(%rcx),%eax
    2cae:	48 c1 e0 0c          	shl    $0xc,%rax
    2cb2:	c3                   	retq   
    2cb3:	66 2e 0f 1f 84 00 00 	nopw   %cs:0x0(%rax,%rax,1)
    2cba:	00 00 00 
    2cbd:	0f 1f 00             	nopl   (%rax)

0000000000002cc0 <get_rsrv_base>:
    2cc0:	48 8d 05 f9 4d 01 00 	lea    0x14df9(%rip),%rax        # 17ac0 <g_global_data>
    2cc7:	48 8b 40 18          	mov    0x18(%rax),%rax
    2ccb:	48 03 05 fe 82 21 00 	add    0x2182fe(%rip),%rax        # 21afd0 <_DYNAMIC+0x160>
    2cd2:	c3                   	retq   
    2cd3:	66 2e 0f 1f 84 00 00 	nopw   %cs:0x0(%rax,%rax,1)
    2cda:	00 00 00 
    2cdd:	0f 1f 00             	nopl   (%rax)

0000000000002ce0 <get_rsrv_end>:
    2ce0:	48 8d 05 5d 81 21 00 	lea    0x21815d(%rip),%rax        # 21ae44 <EDMM_supported>
    2ce7:	48 8d 0d d2 4d 01 00 	lea    0x14dd2(%rip),%rcx        # 17ac0 <g_global_data>
    2cee:	8b 00                	mov    (%rax),%eax
    2cf0:	4c 8b 41 18          	mov    0x18(%rcx),%r8
    2cf4:	4c 03 05 d5 82 21 00 	add    0x2182d5(%rip),%r8        # 21afd0 <_DYNAMIC+0x160>
    2cfb:	48 8b 79 20          	mov    0x20(%rcx),%rdi
    2cff:	85 c0                	test   %eax,%eax
    2d01:	74 4f                	je     2d52 <get_rsrv_end+0x72>
    2d03:	8b 81 18 01 00 00    	mov    0x118(%rcx),%eax
    2d09:	85 c0                	test   %eax,%eax
    2d0b:	74 45                	je     2d52 <get_rsrv_end+0x72>
    2d0d:	31 d2                	xor    %edx,%edx
    2d0f:	eb 14                	jmp    2d25 <get_rsrv_end+0x45>
    2d11:	0f 1f 80 00 00 00 00 	nopl   0x0(%rax)
    2d18:	8b 81 18 01 00 00    	mov    0x118(%rcx),%eax
    2d1e:	83 c2 01             	add    $0x1,%edx
    2d21:	39 d0                	cmp    %edx,%eax
    2d23:	76 2d                	jbe    2d52 <get_rsrv_end+0x72>
    2d25:	89 d0                	mov    %edx,%eax
    2d27:	48 83 c0 09          	add    $0x9,%rax
    2d2b:	48 c1 e0 05          	shl    $0x5,%rax
    2d2f:	48 01 c8             	add    %rcx,%rax
    2d32:	0f b7 30             	movzwl (%rax),%esi
    2d35:	66 83 fe 16          	cmp    $0x16,%si
    2d39:	75 dd                	jne    2d18 <get_rsrv_end+0x38>
    2d3b:	8b 40 04             	mov    0x4(%rax),%eax
    2d3e:	83 c2 01             	add    $0x1,%edx
    2d41:	48 c1 e0 0c          	shl    $0xc,%rax
    2d45:	48 01 c7             	add    %rax,%rdi
    2d48:	8b 81 18 01 00 00    	mov    0x118(%rcx),%eax
    2d4e:	39 d0                	cmp    %edx,%eax
    2d50:	77 d3                	ja     2d25 <get_rsrv_end+0x45>
    2d52:	4a 8d 44 07 ff       	lea    -0x1(%rdi,%r8,1),%rax
    2d57:	c3                   	retq   
    2d58:	0f 1f 84 00 00 00 00 	nopl   0x0(%rax,%rax,1)
    2d5f:	00 

0000000000002d60 <get_rsrv_size>:
    2d60:	48 8d 15 dd 80 21 00 	lea    0x2180dd(%rip),%rdx        # 21ae44 <EDMM_supported>
    2d67:	48 8d 35 52 4d 01 00 	lea    0x14d52(%rip),%rsi        # 17ac0 <g_global_data>
    2d6e:	8b 12                	mov    (%rdx),%edx
    2d70:	48 8b 46 20          	mov    0x20(%rsi),%rax
    2d74:	85 d2                	test   %edx,%edx
    2d76:	74 52                	je     2dca <get_rsrv_size+0x6a>
    2d78:	8b 96 18 01 00 00    	mov    0x118(%rsi),%edx
    2d7e:	85 d2                	test   %edx,%edx
    2d80:	74 48                	je     2dca <get_rsrv_size+0x6a>
    2d82:	31 c9                	xor    %ecx,%ecx
    2d84:	eb 17                	jmp    2d9d <get_rsrv_size+0x3d>
    2d86:	66 2e 0f 1f 84 00 00 	nopw   %cs:0x0(%rax,%rax,1)
    2d8d:	00 00 00 
    2d90:	8b 96 18 01 00 00    	mov    0x118(%rsi),%edx
    2d96:	83 c1 01             	add    $0x1,%ecx
    2d99:	39 ca                	cmp    %ecx,%edx
    2d9b:	76 2d                	jbe    2dca <get_rsrv_size+0x6a>
    2d9d:	89 ca                	mov    %ecx,%edx
    2d9f:	48 83 c2 09          	add    $0x9,%rdx
    2da3:	48 c1 e2 05          	shl    $0x5,%rdx
    2da7:	48 01 f2             	add    %rsi,%rdx
    2daa:	0f b7 3a             	movzwl (%rdx),%edi
    2dad:	66 83 ff 16          	cmp    $0x16,%di
    2db1:	75 dd                	jne    2d90 <get_rsrv_size+0x30>
    2db3:	8b 52 04             	mov    0x4(%rdx),%edx
    2db6:	83 c1 01             	add    $0x1,%ecx
    2db9:	48 c1 e2 0c          	shl    $0xc,%rdx
    2dbd:	48 01 d0             	add    %rdx,%rax
    2dc0:	8b 96 18 01 00 00    	mov    0x118(%rsi),%edx
    2dc6:	39 ca                	cmp    %ecx,%edx
    2dc8:	77 d3                	ja     2d9d <get_rsrv_size+0x3d>
    2dca:	f3 c3                	repz retq 
    2dcc:	0f 1f 40 00          	nopl   0x0(%rax)

0000000000002dd0 <get_rsrv_min_size>:
    2dd0:	48 8d 0d e9 4c 01 00 	lea    0x14ce9(%rip),%rcx        # 17ac0 <g_global_data>
    2dd7:	8b 81 18 01 00 00    	mov    0x118(%rcx),%eax
    2ddd:	85 c0                	test   %eax,%eax
    2ddf:	74 3a                	je     2e1b <get_rsrv_min_size+0x4b>
    2de1:	0f b7 81 20 01 00 00 	movzwl 0x120(%rcx),%eax
    2de8:	66 83 f8 14          	cmp    $0x14,%ax
    2dec:	74 30                	je     2e1e <get_rsrv_min_size+0x4e>
    2dee:	31 d2                	xor    %edx,%edx
    2df0:	eb 1c                	jmp    2e0e <get_rsrv_min_size+0x3e>
    2df2:	66 0f 1f 44 00 00    	nopw   0x0(%rax,%rax,1)
    2df8:	89 d6                	mov    %edx,%esi
    2dfa:	48 8d 46 09          	lea    0x9(%rsi),%rax
    2dfe:	48 c1 e0 05          	shl    $0x5,%rax
    2e02:	48 01 c8             	add    %rcx,%rax
    2e05:	0f b7 00             	movzwl (%rax),%eax
    2e08:	66 83 f8 14          	cmp    $0x14,%ax
    2e0c:	74 12                	je     2e20 <get_rsrv_min_size+0x50>
    2e0e:	8b 81 18 01 00 00    	mov    0x118(%rcx),%eax
    2e14:	83 c2 01             	add    $0x1,%edx
    2e17:	39 d0                	cmp    %edx,%eax
    2e19:	77 dd                	ja     2df8 <get_rsrv_min_size+0x28>
    2e1b:	31 c0                	xor    %eax,%eax
    2e1d:	c3                   	retq   
    2e1e:	31 f6                	xor    %esi,%esi
    2e20:	48 83 c6 09          	add    $0x9,%rsi
    2e24:	48 c1 e6 05          	shl    $0x5,%rsi
    2e28:	48 01 f1             	add    %rsi,%rcx
    2e2b:	8b 41 04             	mov    0x4(%rcx),%eax
    2e2e:	48 c1 e0 0c          	shl    $0xc,%rax
    2e32:	c3                   	retq   
    2e33:	66 2e 0f 1f 84 00 00 	nopw   %cs:0x0(%rax,%rax,1)
    2e3a:	00 00 00 
    2e3d:	0f 1f 00             	nopl   (%rax)

0000000000002e40 <get_errno_addr>:
    2e40:	48 83 ec 08          	sub    $0x8,%rsp
    2e44:	e8 65 41 01 00       	callq  16fae <get_thread_data>
    2e49:	48 83 c4 08          	add    $0x8,%rsp
    2e4d:	48 83 c0 40          	add    $0x40,%rax
    2e51:	c3                   	retq   
    2e52:	66 2e 0f 1f 84 00 00 	nopw   %cs:0x0(%rax,%rax,1)
    2e59:	00 00 00 
    2e5c:	0f 1f 40 00          	nopl   0x0(%rax)

0000000000002e60 <feature_supported>:
    2e60:	31 c0                	xor    %eax,%eax
    2e62:	48 85 ff             	test   %rdi,%rdi
    2e65:	75 15                	jne    2e7c <feature_supported+0x1c>
    2e67:	eb 3a                	jmp    2ea3 <feature_supported+0x43>
    2e69:	0f 1f 80 00 00 00 00 	nopl   0x0(%rax)
    2e70:	41 89 c0             	mov    %eax,%r8d
    2e73:	89 d0                	mov    %edx,%eax
    2e75:	4a 83 3c c7 00       	cmpq   $0x0,(%rdi,%r8,8)
    2e7a:	78 24                	js     2ea0 <feature_supported+0x40>
    2e7c:	8d 50 01             	lea    0x1(%rax),%edx
    2e7f:	41 89 d0             	mov    %edx,%r8d
    2e82:	41 c1 e0 06          	shl    $0x6,%r8d
    2e86:	41 39 f0             	cmp    %esi,%r8d
    2e89:	76 e5                	jbe    2e70 <feature_supported+0x10>
    2e8b:	89 c2                	mov    %eax,%edx
    2e8d:	89 f1                	mov    %esi,%ecx
    2e8f:	c1 e0 06             	shl    $0x6,%eax
    2e92:	29 c1                	sub    %eax,%ecx
    2e94:	48 8b 04 d7          	mov    (%rdi,%rdx,8),%rax
    2e98:	48 d3 e8             	shr    %cl,%rax
    2e9b:	83 e0 01             	and    $0x1,%eax
    2e9e:	c3                   	retq   
    2e9f:	90                   	nop
    2ea0:	31 c0                	xor    %eax,%eax
    2ea2:	c3                   	retq   
    2ea3:	f3 c3                	repz retq 
    2ea5:	66 2e 0f 1f 84 00 00 	nopw   %cs:0x0(%rax,%rax,1)
    2eac:	00 00 00 
    2eaf:	90                   	nop

0000000000002eb0 <is_stack_addr>:
    2eb0:	55                   	push   %rbp
    2eb1:	53                   	push   %rbx
    2eb2:	48 89 fd             	mov    %rdi,%rbp
    2eb5:	48 89 f3             	mov    %rsi,%rbx
    2eb8:	48 83 ec 08          	sub    $0x8,%rsp
    2ebc:	e8 ed 40 01 00       	callq  16fae <get_thread_data>
    2ec1:	48 8d 74 1d 00       	lea    0x0(%rbp,%rbx,1),%rsi
    2ec6:	48 39 70 10          	cmp    %rsi,0x10(%rax)
    2eca:	48 89 c7             	mov    %rax,%rdi
    2ecd:	0f 93 c0             	setae  %al
    2ed0:	48 39 f5             	cmp    %rsi,%rbp
    2ed3:	0f 96 c2             	setbe  %dl
    2ed6:	21 d0                	and    %edx,%eax
    2ed8:	48 39 6f 18          	cmp    %rbp,0x18(%rdi)
    2edc:	0f 96 c2             	setbe  %dl
    2edf:	48 83 c4 08          	add    $0x8,%rsp
    2ee3:	21 d0                	and    %edx,%eax
    2ee5:	5b                   	pop    %rbx
    2ee6:	5d                   	pop    %rbp
    2ee7:	c3                   	retq   
    2ee8:	0f 1f 84 00 00 00 00 	nopl   0x0(%rax,%rax,1)
    2eef:	00 

0000000000002ef0 <is_valid_sp>:
    2ef0:	40 f6 c7 07          	test   $0x7,%dil
    2ef4:	74 0a                	je     2f00 <is_valid_sp+0x10>
    2ef6:	31 c0                	xor    %eax,%eax
    2ef8:	c3                   	retq   
    2ef9:	0f 1f 80 00 00 00 00 	nopl   0x0(%rax)
    2f00:	53                   	push   %rbx
    2f01:	48 89 fb             	mov    %rdi,%rbx
    2f04:	e8 a5 40 01 00       	callq  16fae <get_thread_data>
    2f09:	48 3b 58 10          	cmp    0x10(%rax),%rbx
    2f0d:	0f 96 c2             	setbe  %dl
    2f10:	48 3b 58 18          	cmp    0x18(%rax),%rbx
    2f14:	5b                   	pop    %rbx
    2f15:	0f 93 c0             	setae  %al
    2f18:	21 d0                	and    %edx,%eax
    2f1a:	c3                   	retq   
    2f1b:	0f 1f 44 00 00       	nopl   0x0(%rax,%rax,1)

0000000000002f20 <internal_handle_exception>:
    2f20:	41 56                	push   %r14
    2f22:	41 55                	push   %r13
    2f24:	41 54                	push   %r12
    2f26:	55                   	push   %rbp
    2f27:	48 89 fd             	mov    %rdi,%rbp
    2f2a:	53                   	push   %rbx
    2f2b:	e8 7e 40 01 00       	callq  16fae <get_thread_data>
    2f30:	49 89 c4             	mov    %rax,%r12
    2f33:	48 8b 40 60          	mov    0x60(%rax),%rax
    2f37:	48 85 c0             	test   %rax,%rax
    2f3a:	0f 88 d8 00 00 00    	js     3018 <internal_handle_exception+0xf8>
    2f40:	48 83 c0 01          	add    $0x1,%rax
    2f44:	48 8d 3d f5 89 21 00 	lea    0x2189f5(%rip),%rdi        # 21b940 <_ZL14g_handler_lock>
    2f4b:	49 89 44 24 60       	mov    %rax,0x60(%r12)
    2f50:	e8 eb 4b 00 00       	callq  7b40 <sgx_spin_lock>
    2f55:	48 8b 05 ec 89 21 00 	mov    0x2189ec(%rip),%rax        # 21b948 <_ZL12g_first_node>
    2f5c:	48 85 c0             	test   %rax,%rax
    2f5f:	0f 84 f1 00 00 00    	je     3056 <internal_handle_exception+0x136>
    2f65:	31 db                	xor    %ebx,%ebx
    2f67:	66 0f 1f 84 00 00 00 	nopw   0x0(%rax,%rax,1)
    2f6e:	00 00 
    2f70:	48 8b 40 08          	mov    0x8(%rax),%rax
    2f74:	48 83 c3 08          	add    $0x8,%rbx
    2f78:	48 85 c0             	test   %rax,%rax
    2f7b:	75 f3                	jne    2f70 <internal_handle_exception+0x50>
    2f7d:	48 85 db             	test   %rbx,%rbx
    2f80:	0f 84 d0 00 00 00    	je     3056 <internal_handle_exception+0x136>
    2f86:	48 89 df             	mov    %rbx,%rdi
    2f89:	e8 22 19 00 00       	callq  48b0 <dlmalloc>
    2f8e:	48 85 c0             	test   %rax,%rax
    2f91:	49 89 c5             	mov    %rax,%r13
    2f94:	0f 84 e0 00 00 00    	je     307a <internal_handle_exception+0x15a>
    2f9a:	48 8b 05 a7 89 21 00 	mov    0x2189a7(%rip),%rax        # 21b948 <_ZL12g_first_node>
    2fa1:	4c 89 ea             	mov    %r13,%rdx
    2fa4:	48 85 c0             	test   %rax,%rax
    2fa7:	74 1b                	je     2fc4 <internal_handle_exception+0xa4>
    2fa9:	0f 1f 80 00 00 00 00 	nopl   0x0(%rax)
    2fb0:	48 8b 08             	mov    (%rax),%rcx
    2fb3:	48 8b 40 08          	mov    0x8(%rax),%rax
    2fb7:	48 83 c2 08          	add    $0x8,%rdx
    2fbb:	48 89 4a f8          	mov    %rcx,-0x8(%rdx)
    2fbf:	48 85 c0             	test   %rax,%rax
    2fc2:	75 ec                	jne    2fb0 <internal_handle_exception+0x90>
    2fc4:	48 8d 3d 75 89 21 00 	lea    0x218975(%rip),%rdi        # 21b940 <_ZL14g_handler_lock>
    2fcb:	e8 d0 4b 00 00       	callq  7ba0 <sgx_spin_unlock>
    2fd0:	48 85 db             	test   %rbx,%rbx
    2fd3:	74 51                	je     3026 <internal_handle_exception+0x106>
    2fd5:	4d 89 ee             	mov    %r13,%r14
    2fd8:	eb 10                	jmp    2fea <internal_handle_exception+0xca>
    2fda:	66 0f 1f 44 00 00    	nopw   0x0(%rax,%rax,1)
    2fe0:	49 83 c6 08          	add    $0x8,%r14
    2fe4:	48 83 eb 08          	sub    $0x8,%rbx
    2fe8:	74 3c                	je     3026 <internal_handle_exception+0x106>
    2fea:	49 8b 06             	mov    (%r14),%rax
    2fed:	48 33 05 44 89 21 00 	xor    0x218944(%rip),%rax        # 21b938 <_ZL12g_veh_cookie>
    2ff4:	48 89 ef             	mov    %rbp,%rdi
    2ff7:	ff d0                	callq  *%rax
    2ff9:	83 f8 ff             	cmp    $0xffffffff,%eax
    2ffc:	75 e2                	jne    2fe0 <internal_handle_exception+0xc0>
    2ffe:	4c 89 ef             	mov    %r13,%rdi
    3001:	e8 8a 32 00 00       	callq  6290 <dlfree>
    3006:	48 8b 7d 20          	mov    0x20(%rbp),%rdi
    300a:	e8 e1 fe ff ff       	callq  2ef0 <is_valid_sp>
    300f:	84 c0                	test   %al,%al
    3011:	75 3b                	jne    304e <internal_handle_exception+0x12e>
    3013:	0f 1f 44 00 00       	nopl   0x0(%rax,%rax,1)
    3018:	49 c7 44 24 60 ff ff 	movq   $0xffffffffffffffff,0x60(%r12)
    301f:	ff ff 
    3021:	e8 84 42 01 00       	callq  172aa <abort>
    3026:	4c 89 ef             	mov    %r13,%rdi
    3029:	e8 62 32 00 00       	callq  6290 <dlfree>
    302e:	48 8b 7d 20          	mov    0x20(%rbp),%rdi
    3032:	e8 b9 fe ff ff       	callq  2ef0 <is_valid_sp>
    3037:	84 c0                	test   %al,%al
    3039:	74 dd                	je     3018 <internal_handle_exception+0xf8>
    303b:	49 c7 44 24 60 ff ff 	movq   $0xffffffffffffffff,0x60(%r12)
    3042:	ff ff 
    3044:	48 89 ef             	mov    %rbp,%rdi
    3047:	e8 6d 42 01 00       	callq  172b9 <continue_execution>
    304c:	eb ca                	jmp    3018 <internal_handle_exception+0xf8>
    304e:	49 83 6c 24 60 01    	subq   $0x1,0x60(%r12)
    3054:	eb ee                	jmp    3044 <internal_handle_exception+0x124>
    3056:	48 8d 3d e3 88 21 00 	lea    0x2188e3(%rip),%rdi        # 21b940 <_ZL14g_handler_lock>
    305d:	31 db                	xor    %ebx,%ebx
    305f:	e8 3c 4b 00 00       	callq  7ba0 <sgx_spin_unlock>
    3064:	49 c7 44 24 60 ff ff 	movq   $0xffffffffffffffff,0x60(%r12)
    306b:	ff ff 
    306d:	48 89 ef             	mov    %rbp,%rdi
    3070:	e8 44 42 01 00       	callq  172b9 <continue_execution>
    3075:	e9 0c ff ff ff       	jmpq   2f86 <internal_handle_exception+0x66>
    307a:	48 8d 3d bf 88 21 00 	lea    0x2188bf(%rip),%rdi        # 21b940 <_ZL14g_handler_lock>
    3081:	e8 1a 4b 00 00       	callq  7ba0 <sgx_spin_unlock>
    3086:	eb 90                	jmp    3018 <internal_handle_exception+0xf8>
    3088:	0f 1f 84 00 00 00 00 	nopl   0x0(%rax,%rax,1)
    308f:	00 

0000000000003090 <sgx_register_exception_handler>:
    3090:	41 54                	push   %r12
    3092:	55                   	push   %rbp
    3093:	41 89 fc             	mov    %edi,%r12d
    3096:	53                   	push   %rbx
    3097:	48 89 f5             	mov    %rsi,%rbp
    309a:	48 83 ec 10          	sub    $0x10,%rsp
    309e:	64 48 8b 04 25 28 00 	mov    %fs:0x28,%rax
    30a5:	00 00 
    30a7:	48 89 44 24 08       	mov    %rax,0x8(%rsp)
    30ac:	31 c0                	xor    %eax,%eax
    30ae:	48 83 3d 82 88 21 00 	cmpq   $0x0,0x218882(%rip)        # 21b938 <_ZL12g_veh_cookie>
    30b5:	00 
    30b6:	0f 84 a4 00 00 00    	je     3160 <sgx_register_exception_handler+0xd0>
    30bc:	31 f6                	xor    %esi,%esi
    30be:	48 89 ef             	mov    %rbp,%rdi
    30c1:	e8 da e1 ff ff       	callq  12a0 <sgx_is_within_enclave>
    30c6:	85 c0                	test   %eax,%eax
    30c8:	0f 84 c2 00 00 00    	je     3190 <sgx_register_exception_handler+0x100>
    30ce:	bf 10 00 00 00       	mov    $0x10,%edi
    30d3:	e8 d8 17 00 00       	callq  48b0 <dlmalloc>
    30d8:	48 85 c0             	test   %rax,%rax
    30db:	48 89 c3             	mov    %rax,%rbx
    30de:	0f 84 ac 00 00 00    	je     3190 <sgx_register_exception_handler+0x100>
    30e4:	48 33 2d 4d 88 21 00 	xor    0x21884d(%rip),%rbp        # 21b938 <_ZL12g_veh_cookie>
    30eb:	48 8d 3d 4e 88 21 00 	lea    0x21884e(%rip),%rdi        # 21b940 <_ZL14g_handler_lock>
    30f2:	48 89 28             	mov    %rbp,(%rax)
    30f5:	e8 46 4a 00 00       	callq  7b40 <sgx_spin_lock>
    30fa:	48 8b 0d 47 88 21 00 	mov    0x218847(%rip),%rcx        # 21b948 <_ZL12g_first_node>
    3101:	48 85 c9             	test   %rcx,%rcx
    3104:	74 05                	je     310b <sgx_register_exception_handler+0x7b>
    3106:	45 85 e4             	test   %r12d,%r12d
    3109:	74 18                	je     3123 <sgx_register_exception_handler+0x93>
    310b:	48 89 4b 08          	mov    %rcx,0x8(%rbx)
    310f:	48 89 1d 32 88 21 00 	mov    %rbx,0x218832(%rip)        # 21b948 <_ZL12g_first_node>
    3116:	eb 20                	jmp    3138 <sgx_register_exception_handler+0xa8>
    3118:	0f 1f 84 00 00 00 00 	nopl   0x0(%rax,%rax,1)
    311f:	00 
    3120:	48 89 d1             	mov    %rdx,%rcx
    3123:	48 8b 51 08          	mov    0x8(%rcx),%rdx
    3127:	48 85 d2             	test   %rdx,%rdx
    312a:	75 f4                	jne    3120 <sgx_register_exception_handler+0x90>
    312c:	48 c7 43 08 00 00 00 	movq   $0x0,0x8(%rbx)
    3133:	00 
    3134:	48 89 59 08          	mov    %rbx,0x8(%rcx)
    3138:	48 8d 3d 01 88 21 00 	lea    0x218801(%rip),%rdi        # 21b940 <_ZL14g_handler_lock>
    313f:	e8 5c 4a 00 00       	callq  7ba0 <sgx_spin_unlock>
    3144:	48 89 d8             	mov    %rbx,%rax
    3147:	48 8b 74 24 08       	mov    0x8(%rsp),%rsi
    314c:	64 48 33 34 25 28 00 	xor    %fs:0x28,%rsi
    3153:	00 00 
    3155:	75 73                	jne    31ca <sgx_register_exception_handler+0x13a>
    3157:	48 83 c4 10          	add    $0x10,%rsp
    315b:	5b                   	pop    %rbx
    315c:	5d                   	pop    %rbp
    315d:	41 5c                	pop    %r12
    315f:	c3                   	retq   
    3160:	48 c7 04 24 00 00 00 	movq   $0x0,(%rsp)
    3167:	00 
    3168:	48 89 e3             	mov    %rsp,%rbx
    316b:	eb 0a                	jmp    3177 <sgx_register_exception_handler+0xe7>
    316d:	0f 1f 00             	nopl   (%rax)
    3170:	48 83 3c 24 00       	cmpq   $0x0,(%rsp)
    3175:	75 21                	jne    3198 <sgx_register_exception_handler+0x108>
    3177:	be 08 00 00 00       	mov    $0x8,%esi
    317c:	48 89 df             	mov    %rbx,%rdi
    317f:	e8 0c e3 ff ff       	callq  1490 <sgx_read_rand>
    3184:	85 c0                	test   %eax,%eax
    3186:	74 e8                	je     3170 <sgx_register_exception_handler+0xe0>
    3188:	0f 1f 84 00 00 00 00 	nopl   0x0(%rax,%rax,1)
    318f:	00 
    3190:	31 c0                	xor    %eax,%eax
    3192:	eb b3                	jmp    3147 <sgx_register_exception_handler+0xb7>
    3194:	0f 1f 40 00          	nopl   0x0(%rax)
    3198:	48 8d 3d a1 87 21 00 	lea    0x2187a1(%rip),%rdi        # 21b940 <_ZL14g_handler_lock>
    319f:	e8 9c 49 00 00       	callq  7b40 <sgx_spin_lock>
    31a4:	48 83 3d 8c 87 21 00 	cmpq   $0x0,0x21878c(%rip)        # 21b938 <_ZL12g_veh_cookie>
    31ab:	00 
    31ac:	75 0b                	jne    31b9 <sgx_register_exception_handler+0x129>
    31ae:	48 8b 04 24          	mov    (%rsp),%rax
    31b2:	48 89 05 7f 87 21 00 	mov    %rax,0x21877f(%rip)        # 21b938 <_ZL12g_veh_cookie>
    31b9:	48 8d 3d 80 87 21 00 	lea    0x218780(%rip),%rdi        # 21b940 <_ZL14g_handler_lock>
    31c0:	e8 db 49 00 00       	callq  7ba0 <sgx_spin_unlock>
    31c5:	e9 f2 fe ff ff       	jmpq   30bc <sgx_register_exception_handler+0x2c>
    31ca:	e8 c1 0e 00 00       	callq  4090 <__stack_chk_fail>
    31cf:	90                   	nop

00000000000031d0 <sgx_unregister_exception_handler>:
    31d0:	31 c0                	xor    %eax,%eax
    31d2:	48 85 ff             	test   %rdi,%rdi
    31d5:	74 49                	je     3220 <sgx_unregister_exception_handler+0x50>
    31d7:	53                   	push   %rbx
    31d8:	48 89 fb             	mov    %rdi,%rbx
    31db:	48 8d 3d 5e 87 21 00 	lea    0x21875e(%rip),%rdi        # 21b940 <_ZL14g_handler_lock>
    31e2:	e8 59 49 00 00       	callq  7b40 <sgx_spin_lock>
    31e7:	48 8b 15 5a 87 21 00 	mov    0x21875a(%rip),%rdx        # 21b948 <_ZL12g_first_node>
    31ee:	48 85 d2             	test   %rdx,%rdx
    31f1:	74 1e                	je     3211 <sgx_unregister_exception_handler+0x41>
    31f3:	48 39 d3             	cmp    %rdx,%rbx
    31f6:	75 10                	jne    3208 <sgx_unregister_exception_handler+0x38>
    31f8:	eb 56                	jmp    3250 <sgx_unregister_exception_handler+0x80>
    31fa:	66 0f 1f 44 00 00    	nopw   0x0(%rax,%rax,1)
    3200:	48 39 c3             	cmp    %rax,%rbx
    3203:	74 23                	je     3228 <sgx_unregister_exception_handler+0x58>
    3205:	48 89 c2             	mov    %rax,%rdx
    3208:	48 8b 42 08          	mov    0x8(%rdx),%rax
    320c:	48 85 c0             	test   %rax,%rax
    320f:	75 ef                	jne    3200 <sgx_unregister_exception_handler+0x30>
    3211:	48 8d 3d 28 87 21 00 	lea    0x218728(%rip),%rdi        # 21b940 <_ZL14g_handler_lock>
    3218:	e8 83 49 00 00       	callq  7ba0 <sgx_spin_unlock>
    321d:	5b                   	pop    %rbx
    321e:	31 c0                	xor    %eax,%eax
    3220:	f3 c3                	repz retq 
    3222:	66 0f 1f 44 00 00    	nopw   0x0(%rax,%rax,1)
    3228:	48 8b 43 08          	mov    0x8(%rbx),%rax
    322c:	48 89 42 08          	mov    %rax,0x8(%rdx)
    3230:	48 8d 3d 09 87 21 00 	lea    0x218709(%rip),%rdi        # 21b940 <_ZL14g_handler_lock>
    3237:	e8 64 49 00 00       	callq  7ba0 <sgx_spin_unlock>
    323c:	48 89 df             	mov    %rbx,%rdi
    323f:	e8 4c 30 00 00       	callq  6290 <dlfree>
    3244:	b8 01 00 00 00       	mov    $0x1,%eax
    3249:	5b                   	pop    %rbx
    324a:	eb d4                	jmp    3220 <sgx_unregister_exception_handler+0x50>
    324c:	0f 1f 40 00          	nopl   0x0(%rax)
    3250:	48 8b 43 08          	mov    0x8(%rbx),%rax
    3254:	48 89 05 ed 86 21 00 	mov    %rax,0x2186ed(%rip)        # 21b948 <_ZL12g_first_node>
    325b:	eb d3                	jmp    3230 <sgx_unregister_exception_handler+0x60>
    325d:	0f 1f 00             	nopl   (%rax)

0000000000003260 <trts_handle_exception>:
    3260:	41 55                	push   %r13
    3262:	41 54                	push   %r12
    3264:	55                   	push   %rbp
    3265:	53                   	push   %rbx
    3266:	48 89 fd             	mov    %rdi,%rbp
    3269:	48 83 ec 08          	sub    $0x8,%rsp
    326d:	e8 3c 3d 01 00       	callq  16fae <get_thread_data>
    3272:	48 85 c0             	test   %rax,%rax
    3275:	74 05                	je     327c <trts_handle_exception+0x1c>
    3277:	48 85 ed             	test   %rbp,%rbp
    327a:	75 24                	jne    32a0 <trts_handle_exception+0x40>
    327c:	48 8d 05 81 86 21 00 	lea    0x218681(%rip),%rax        # 21b904 <g_enclave_state>
    3283:	c7 00 03 00 00 00    	movl   $0x3,(%rax)
    3289:	b8 06 10 00 00       	mov    $0x1006,%eax
    328e:	48 83 c4 08          	add    $0x8,%rsp
    3292:	5b                   	pop    %rbx
    3293:	5d                   	pop    %rbp
    3294:	41 5c                	pop    %r12
    3296:	41 5d                	pop    %r13
    3298:	c3                   	retq   
    3299:	0f 1f 80 00 00 00 00 	nopl   0x0(%rax)
    32a0:	48 89 ef             	mov    %rbp,%rdi
    32a3:	48 89 c3             	mov    %rax,%rbx
    32a6:	e8 15 e3 ff ff       	callq  15c0 <check_static_stack_canary>
    32ab:	85 c0                	test   %eax,%eax
    32ad:	75 cd                	jne    327c <trts_handle_exception+0x1c>
    32af:	e8 c7 3c 01 00       	callq  16f7b <get_enclave_state>
    32b4:	83 f8 02             	cmp    $0x2,%eax
    32b7:	75 c3                	jne    327c <trts_handle_exception+0x1c>
    32b9:	48 83 7b 60 ff       	cmpq   $0xffffffffffffffff,0x60(%rbx)
    32be:	74 bc                	je     327c <trts_handle_exception+0x1c>
    32c0:	48 8b 43 10          	mov    0x10(%rbx),%rax
    32c4:	48 05 b0 02 01 00    	add    $0x102b0,%rax
    32ca:	48 39 c5             	cmp    %rax,%rbp
    32cd:	75 ad                	jne    327c <trts_handle_exception+0x1c>
    32cf:	4c 8b 63 20          	mov    0x20(%rbx),%r12
    32d3:	4c 89 e0             	mov    %r12,%rax
    32d6:	48 25 00 f0 ff ff    	and    $0xfffffffffffff000,%rax
    32dc:	48 2d 00 10 00 00    	sub    $0x1000,%rax
    32e2:	48 39 c5             	cmp    %rax,%rbp
    32e5:	75 95                	jne    327c <trts_handle_exception+0x1c>
    32e7:	49 8b 6c 24 20       	mov    0x20(%r12),%rbp
    32ec:	31 f6                	xor    %esi,%esi
    32ee:	48 89 ef             	mov    %rbp,%rdi
    32f1:	e8 ba fb ff ff       	callq  2eb0 <is_stack_addr>
    32f6:	84 c0                	test   %al,%al
    32f8:	75 14                	jne    330e <trts_handle_exception+0xae>
    32fa:	48 8d 05 03 86 21 00 	lea    0x218603(%rip),%rax        # 21b904 <g_enclave_state>
    3301:	c7 00 03 00 00 00    	movl   $0x3,(%rax)
    3307:	b8 09 10 00 00       	mov    $0x1009,%eax
    330c:	eb 80                	jmp    328e <trts_handle_exception+0x2e>
    330e:	48 81 ed 18 01 00 00 	sub    $0x118,%rbp
    3315:	be 18 01 00 00       	mov    $0x118,%esi
    331a:	48 83 e5 f0          	and    $0xfffffffffffffff0,%rbp
    331e:	48 89 ef             	mov    %rbp,%rdi
    3321:	e8 8a fb ff ff       	callq  2eb0 <is_stack_addr>
    3326:	84 c0                	test   %al,%al
    3328:	74 d0                	je     32fa <trts_handle_exception+0x9a>
    332a:	4c 8d 6d f8          	lea    -0x8(%rbp),%r13
    332e:	be 08 00 00 00       	mov    $0x8,%esi
    3333:	4c 89 ef             	mov    %r13,%rdi
    3336:	e8 75 fb ff ff       	callq  2eb0 <is_stack_addr>
    333b:	84 c0                	test   %al,%al
    333d:	74 bb                	je     32fa <trts_handle_exception+0x9a>
    333f:	48 8b 83 98 00 00 00 	mov    0x98(%rbx),%rax
    3346:	49 39 c5             	cmp    %rax,%r13
    3349:	73 50                	jae    339b <trts_handle_exception+0x13b>
    334b:	48 8d a8 ff 0f 00 00 	lea    0xfff(%rax),%rbp
    3352:	4c 29 ed             	sub    %r13,%rbp
    3355:	48 81 e5 00 f0 ff ff 	and    $0xfffffffffffff000,%rbp
    335c:	48 39 e8             	cmp    %rbp,%rax
    335f:	76 99                	jbe    32fa <trts_handle_exception+0x9a>
    3361:	48 29 e8             	sub    %rbp,%rax
    3364:	48 3b 43 18          	cmp    0x18(%rbx),%rax
    3368:	48 89 c7             	mov    %rax,%rdi
    336b:	72 8d                	jb     32fa <trts_handle_exception+0x9a>
    336d:	48 89 ee             	mov    %rbp,%rsi
    3370:	48 c1 ee 0c          	shr    $0xc,%rsi
    3374:	48 85 c0             	test   %rax,%rax
    3377:	74 81                	je     32fa <trts_handle_exception+0x9a>
    3379:	48 85 f6             	test   %rsi,%rsi
    337c:	0f 84 78 ff ff ff    	je     32fa <trts_handle_exception+0x9a>
    3382:	e8 89 e9 ff ff       	callq  1d10 <apply_pages_within_exception>
    3387:	85 c0                	test   %eax,%eax
    3389:	0f 85 6b ff ff ff    	jne    32fa <trts_handle_exception+0x9a>
    338f:	48 29 ab 98 00 00 00 	sub    %rbp,0x98(%rbx)
    3396:	e9 f3 fe ff ff       	jmpq   328e <trts_handle_exception+0x2e>
    339b:	49 8b 84 24 88 00 00 	mov    0x88(%r12),%rax
    33a2:	00 
    33a3:	48 3b 05 3e 7c 21 00 	cmp    0x217c3e(%rip),%rax        # 21afe8 <_DYNAMIC+0x178>
    33aa:	0f 84 06 01 00 00    	je     34b6 <trts_handle_exception+0x256>
    33b0:	41 80 bc 24 a3 00 00 	cmpb   $0x0,0xa3(%r12)
    33b7:	00 00 
    33b9:	0f 89 bd fe ff ff    	jns    327c <trts_handle_exception+0x1c>
    33bf:	41 0f b6 94 24 a0 00 	movzbl 0xa0(%r12),%edx
    33c6:	00 00 
    33c8:	48 8d 0d 51 fb ff ff 	lea    -0x4af(%rip),%rcx        # 2f20 <internal_handle_exception>
    33cf:	89 95 90 00 00 00    	mov    %edx,0x90(%rbp)
    33d5:	41 0f b6 94 24 a1 00 	movzbl 0xa1(%r12),%edx
    33dc:	00 00 
    33de:	83 e2 07             	and    $0x7,%edx
    33e1:	89 95 94 00 00 00    	mov    %edx,0x94(%rbp)
    33e7:	49 8b 14 24          	mov    (%r12),%rdx
    33eb:	48 89 55 00          	mov    %rdx,0x0(%rbp)
    33ef:	49 8b 54 24 08       	mov    0x8(%r12),%rdx
    33f4:	48 89 55 08          	mov    %rdx,0x8(%rbp)
    33f8:	49 8b 54 24 10       	mov    0x10(%r12),%rdx
    33fd:	48 89 55 10          	mov    %rdx,0x10(%rbp)
    3401:	49 8b 54 24 18       	mov    0x18(%r12),%rdx
    3406:	48 89 55 18          	mov    %rdx,0x18(%rbp)
    340a:	49 8b 54 24 20       	mov    0x20(%r12),%rdx
    340f:	48 89 55 20          	mov    %rdx,0x20(%rbp)
    3413:	49 8b 54 24 28       	mov    0x28(%r12),%rdx
    3418:	48 89 55 28          	mov    %rdx,0x28(%rbp)
    341c:	49 8b 54 24 30       	mov    0x30(%r12),%rdx
    3421:	48 89 55 30          	mov    %rdx,0x30(%rbp)
    3425:	49 8b 54 24 38       	mov    0x38(%r12),%rdx
    342a:	48 89 55 38          	mov    %rdx,0x38(%rbp)
    342e:	49 8b 94 24 80 00 00 	mov    0x80(%r12),%rdx
    3435:	00 
    3436:	48 89 85 88 00 00 00 	mov    %rax,0x88(%rbp)
    343d:	48 89 95 80 00 00 00 	mov    %rdx,0x80(%rbp)
    3444:	49 8b 54 24 40       	mov    0x40(%r12),%rdx
    3449:	48 89 55 40          	mov    %rdx,0x40(%rbp)
    344d:	49 8b 54 24 48       	mov    0x48(%r12),%rdx
    3452:	48 89 55 48          	mov    %rdx,0x48(%rbp)
    3456:	49 8b 54 24 50       	mov    0x50(%r12),%rdx
    345b:	48 89 55 50          	mov    %rdx,0x50(%rbp)
    345f:	49 8b 54 24 58       	mov    0x58(%r12),%rdx
    3464:	48 89 55 58          	mov    %rdx,0x58(%rbp)
    3468:	49 8b 54 24 60       	mov    0x60(%r12),%rdx
    346d:	48 89 55 60          	mov    %rdx,0x60(%rbp)
    3471:	49 8b 54 24 68       	mov    0x68(%r12),%rdx
    3476:	48 89 55 68          	mov    %rdx,0x68(%rbp)
    347a:	49 8b 54 24 70       	mov    0x70(%r12),%rdx
    347f:	48 89 55 70          	mov    %rdx,0x70(%rbp)
    3483:	49 8b 54 24 78       	mov    0x78(%r12),%rdx
    3488:	48 89 55 78          	mov    %rdx,0x78(%rbp)
    348c:	49 89 8c 24 88 00 00 	mov    %rcx,0x88(%r12)
    3493:	00 
    3494:	4d 89 6c 24 20       	mov    %r13,0x20(%r12)
    3499:	49 89 2c 24          	mov    %rbp,(%r12)
    349d:	49 89 6c 24 38       	mov    %rbp,0x38(%r12)
    34a2:	48 89 45 f8          	mov    %rax,-0x8(%rbp)
    34a6:	31 c0                	xor    %eax,%eax
    34a8:	41 80 a4 24 a3 00 00 	andb   $0x7f,0xa3(%r12)
    34af:	00 7f 
    34b1:	e9 d8 fd ff ff       	jmpq   328e <trts_handle_exception+0x2e>
    34b6:	49 83 3c 24 00       	cmpq   $0x0,(%r12)
    34bb:	0f 85 ef fe ff ff    	jne    33b0 <trts_handle_exception+0x150>
    34c1:	48 83 c0 03          	add    $0x3,%rax
    34c5:	49 83 8c 24 80 00 00 	orq    $0x1,0x80(%r12)
    34cc:	00 01 
    34ce:	49 89 84 24 88 00 00 	mov    %rax,0x88(%r12)
    34d5:	00 
    34d6:	31 c0                	xor    %eax,%eax
    34d8:	e9 b1 fd ff ff       	jmpq   328e <trts_handle_exception+0x2e>
    34dd:	0f 1f 00             	nopl   (%rax)

00000000000034e0 <get_xfeature_state>:
    34e0:	48 83 ec 08          	sub    $0x8,%rsp
    34e4:	e8 37 35 01 00       	callq  16a20 <sgx_self_report>
    34e9:	48 8b 40 38          	mov    0x38(%rax),%rax
    34ed:	31 d2                	xor    %edx,%edx
    34ef:	48 83 f8 03          	cmp    $0x3,%rax
    34f3:	0f 95 c2             	setne  %dl
    34f6:	89 15 0c 84 21 00    	mov    %edx,0x21840c(%rip)        # 21b908 <g_xsave_enabled>
    34fc:	48 83 c4 08          	add    $0x8,%rsp
    3500:	c3                   	retq   
    3501:	66 2e 0f 1f 84 00 00 	nopw   %cs:0x0(%rax,%rax,1)
    3508:	00 00 00 
    350b:	0f 1f 44 00 00       	nopl   0x0(%rax,%rax,1)

0000000000003510 <do_relocs>:
    3510:	48 01 fe             	add    %rdi,%rsi
    3513:	48 01 fa             	add    %rdi,%rdx
    3516:	48 85 c9             	test   %rcx,%rcx
    3519:	0f 84 48 02 00 00    	je     3767 <do_relocs+0x257>
    351f:	55                   	push   %rbp
    3520:	4c 8d 15 01 3e 01 00 	lea    0x13e01(%rip),%r10        # 17328 <g_dyn_entry_table+0x8>
    3527:	53                   	push   %rbx
    3528:	45 31 c9             	xor    %r9d,%r9d
    352b:	0f 1f 44 00 00       	nopl   0x0(%rax,%rax,1)
    3530:	4c 8b 46 08          	mov    0x8(%rsi),%r8
    3534:	49 89 fb             	mov    %rdi,%r11
    3537:	4c 03 1e             	add    (%rsi),%r11
    353a:	44 89 c0             	mov    %r8d,%eax
    353d:	48 83 f8 12          	cmp    $0x12,%rax
    3541:	0f 87 7d 00 00 00    	ja     35c4 <do_relocs+0xb4>
    3547:	49 63 04 82          	movslq (%r10,%rax,4),%rax
    354b:	4c 01 d0             	add    %r10,%rax
    354e:	ff e0                	jmpq   *%rax
    3550:	48 8b 68 30          	mov    0x30(%rax),%rbp
    3554:	4c 8b 40 28          	mov    0x28(%rax),%r8
    3558:	48 83 fd 01          	cmp    $0x1,%rbp
    355c:	76 0e                	jbe    356c <do_relocs+0x5c>
    355e:	4a 8d 44 05 ff       	lea    -0x1(%rbp,%r8,1),%rax
    3563:	49 89 e8             	mov    %rbp,%r8
    3566:	49 f7 d8             	neg    %r8
    3569:	49 21 c0             	and    %rax,%r8
    356c:	4d 85 c0             	test   %r8,%r8
    356f:	74 53                	je     35c4 <do_relocs+0xb4>
    3571:	48 8b 46 10          	mov    0x10(%rsi),%rax
    3575:	48 03 43 08          	add    0x8(%rbx),%rax
    3579:	4c 29 c0             	sub    %r8,%rax
    357c:	49 89 03             	mov    %rax,(%r11)
    357f:	49 83 c1 01          	add    $0x1,%r9
    3583:	48 83 c6 18          	add    $0x18,%rsi
    3587:	4c 39 c9             	cmp    %r9,%rcx
    358a:	75 a4                	jne    3530 <do_relocs+0x20>
    358c:	31 c0                	xor    %eax,%eax
    358e:	5b                   	pop    %rbx
    358f:	5d                   	pop    %rbp
    3590:	c3                   	retq   
    3591:	0f 1f 80 00 00 00 00 	nopl   0x0(%rax)
    3598:	49 c1 e8 20          	shr    $0x20,%r8
    359c:	4b 8d 04 40          	lea    (%r8,%r8,2),%rax
    35a0:	48 8d 1c c2          	lea    (%rdx,%rax,8),%rbx
    35a4:	0f b6 43 04          	movzbl 0x4(%rbx),%eax
    35a8:	c0 e8 04             	shr    $0x4,%al
    35ab:	3c 02                	cmp    $0x2,%al
    35ad:	0f 84 dd 00 00 00    	je     3690 <do_relocs+0x180>
    35b3:	48 85 ff             	test   %rdi,%rdi
    35b6:	74 0c                	je     35c4 <do_relocs+0xb4>
    35b8:	81 3f 7f 45 4c 46    	cmpl   $0x464c457f,(%rdi)
    35be:	0f 84 3c 01 00 00    	je     3700 <do_relocs+0x1f0>
    35c4:	b8 ff ff ff ff       	mov    $0xffffffff,%eax
    35c9:	5b                   	pop    %rbx
    35ca:	5d                   	pop    %rbp
    35cb:	c3                   	retq   
    35cc:	0f 1f 40 00          	nopl   0x0(%rax)
    35d0:	49 c1 e8 20          	shr    $0x20,%r8
    35d4:	4b 8d 04 40          	lea    (%r8,%r8,2),%rax
    35d8:	4c 8d 04 c2          	lea    (%rdx,%rax,8),%r8
    35dc:	41 0f b6 40 04       	movzbl 0x4(%r8),%eax
    35e1:	c0 e8 04             	shr    $0x4,%al
    35e4:	3c 02                	cmp    $0x2,%al
    35e6:	49 8b 40 08          	mov    0x8(%r8),%rax
    35ea:	0f 84 e8 00 00 00    	je     36d8 <do_relocs+0x1c8>
    35f0:	48 03 46 10          	add    0x10(%rsi),%rax
    35f4:	49 83 c1 01          	add    $0x1,%r9
    35f8:	48 83 c6 18          	add    $0x18,%rsi
    35fc:	4c 39 c9             	cmp    %r9,%rcx
    35ff:	49 89 03             	mov    %rax,(%r11)
    3602:	0f 85 28 ff ff ff    	jne    3530 <do_relocs+0x20>
    3608:	eb 82                	jmp    358c <do_relocs+0x7c>
    360a:	66 0f 1f 44 00 00    	nopw   0x0(%rax,%rax,1)
    3610:	49 83 c1 01          	add    $0x1,%r9
    3614:	48 83 c6 18          	add    $0x18,%rsi
    3618:	49 c7 03 01 00 00 00 	movq   $0x1,(%r11)
    361f:	4c 39 c9             	cmp    %r9,%rcx
    3622:	0f 85 08 ff ff ff    	jne    3530 <do_relocs+0x20>
    3628:	e9 5f ff ff ff       	jmpq   358c <do_relocs+0x7c>
    362d:	0f 1f 00             	nopl   (%rax)
    3630:	48 89 f8             	mov    %rdi,%rax
    3633:	48 03 46 10          	add    0x10(%rsi),%rax
    3637:	49 83 c1 01          	add    $0x1,%r9
    363b:	48 83 c6 18          	add    $0x18,%rsi
    363f:	4c 39 c9             	cmp    %r9,%rcx
    3642:	49 89 03             	mov    %rax,(%r11)
    3645:	0f 85 e5 fe ff ff    	jne    3530 <do_relocs+0x20>
    364b:	e9 3c ff ff ff       	jmpq   358c <do_relocs+0x7c>
    3650:	49 c1 e8 20          	shr    $0x20,%r8
    3654:	4b 8d 04 40          	lea    (%r8,%r8,2),%rax
    3658:	4c 8d 04 c2          	lea    (%rdx,%rax,8),%r8
    365c:	41 0f b6 40 04       	movzbl 0x4(%r8),%eax
    3661:	c0 e8 04             	shr    $0x4,%al
    3664:	3c 02                	cmp    $0x2,%al
    3666:	49 8b 40 08          	mov    0x8(%r8),%rax
    366a:	74 4c                	je     36b8 <do_relocs+0x1a8>
    366c:	49 89 f8             	mov    %rdi,%r8
    366f:	4c 03 46 10          	add    0x10(%rsi),%r8
    3673:	49 83 c1 01          	add    $0x1,%r9
    3677:	48 83 c6 18          	add    $0x18,%rsi
    367b:	4c 01 c0             	add    %r8,%rax
    367e:	4c 39 c9             	cmp    %r9,%rcx
    3681:	49 89 03             	mov    %rax,(%r11)
    3684:	0f 85 a6 fe ff ff    	jne    3530 <do_relocs+0x20>
    368a:	e9 fd fe ff ff       	jmpq   358c <do_relocs+0x7c>
    368f:	90                   	nop
    3690:	48 83 7b 08 00       	cmpq   $0x0,0x8(%rbx)
    3695:	0f 85 18 ff ff ff    	jne    35b3 <do_relocs+0xa3>
    369b:	49 83 c1 01          	add    $0x1,%r9
    369f:	48 83 c6 18          	add    $0x18,%rsi
    36a3:	4c 39 c9             	cmp    %r9,%rcx
    36a6:	0f 85 84 fe ff ff    	jne    3530 <do_relocs+0x20>
    36ac:	e9 db fe ff ff       	jmpq   358c <do_relocs+0x7c>
    36b1:	0f 1f 80 00 00 00 00 	nopl   0x0(%rax)
    36b8:	48 85 c0             	test   %rax,%rax
    36bb:	75 af                	jne    366c <do_relocs+0x15c>
    36bd:	49 83 c1 01          	add    $0x1,%r9
    36c1:	48 83 c6 18          	add    $0x18,%rsi
    36c5:	4c 39 c9             	cmp    %r9,%rcx
    36c8:	0f 85 62 fe ff ff    	jne    3530 <do_relocs+0x20>
    36ce:	e9 b9 fe ff ff       	jmpq   358c <do_relocs+0x7c>
    36d3:	0f 1f 44 00 00       	nopl   0x0(%rax,%rax,1)
    36d8:	48 85 c0             	test   %rax,%rax
    36db:	0f 85 0f ff ff ff    	jne    35f0 <do_relocs+0xe0>
    36e1:	49 83 c1 01          	add    $0x1,%r9
    36e5:	48 83 c6 18          	add    $0x18,%rsi
    36e9:	4c 39 c9             	cmp    %r9,%rcx
    36ec:	0f 85 3e fe ff ff    	jne    3530 <do_relocs+0x20>
    36f2:	e9 95 fe ff ff       	jmpq   358c <do_relocs+0x7c>
    36f7:	66 0f 1f 84 00 00 00 	nopw   0x0(%rax,%rax,1)
    36fe:	00 00 
    3700:	66 83 7f 10 03       	cmpw   $0x3,0x10(%rdi)
    3705:	0f 85 b9 fe ff ff    	jne    35c4 <do_relocs+0xb4>
    370b:	48 89 fd             	mov    %rdi,%rbp
    370e:	48 03 6f 20          	add    0x20(%rdi),%rbp
    3712:	48 85 ed             	test   %rbp,%rbp
    3715:	48 89 e8             	mov    %rbp,%rax
    3718:	0f 84 a6 fe ff ff    	je     35c4 <do_relocs+0xb4>
    371e:	44 0f b7 47 38       	movzwl 0x38(%rdi),%r8d
    3723:	45 85 c0             	test   %r8d,%r8d
    3726:	0f 84 98 fe ff ff    	je     35c4 <do_relocs+0xb4>
    372c:	83 7d 00 07          	cmpl   $0x7,0x0(%rbp)
    3730:	0f 84 1a fe ff ff    	je     3550 <do_relocs+0x40>
    3736:	41 83 e8 01          	sub    $0x1,%r8d
    373a:	4a 8d 2c c5 00 00 00 	lea    0x0(,%r8,8),%rbp
    3741:	00 
    3742:	49 c1 e0 06          	shl    $0x6,%r8
    3746:	49 29 e8             	sub    %rbp,%r8
    3749:	4e 8d 44 00 38       	lea    0x38(%rax,%r8,1),%r8
    374e:	eb 09                	jmp    3759 <do_relocs+0x249>
    3750:	83 38 07             	cmpl   $0x7,(%rax)
    3753:	0f 84 f7 fd ff ff    	je     3550 <do_relocs+0x40>
    3759:	48 83 c0 38          	add    $0x38,%rax
    375d:	49 39 c0             	cmp    %rax,%r8
    3760:	75 ee                	jne    3750 <do_relocs+0x240>
    3762:	e9 5d fe ff ff       	jmpq   35c4 <do_relocs+0xb4>
    3767:	31 c0                	xor    %eax,%eax
    3769:	c3                   	retq   
    376a:	66 0f 1f 44 00 00    	nopw   0x0(%rax,%rax,1)

0000000000003770 <relocate_enclave>:
    3770:	48 85 ff             	test   %rdi,%rdi
    3773:	74 08                	je     377d <relocate_enclave+0xd>
    3775:	81 3f 7f 45 4c 46    	cmpl   $0x464c457f,(%rdi)
    377b:	74 06                	je     3783 <relocate_enclave+0x13>
    377d:	b8 ff ff ff ff       	mov    $0xffffffff,%eax
    3782:	c3                   	retq   
    3783:	66 83 7f 10 03       	cmpw   $0x3,0x10(%rdi)
    3788:	75 f3                	jne    377d <relocate_enclave+0xd>
    378a:	41 57                	push   %r15
    378c:	41 56                	push   %r14
    378e:	41 55                	push   %r13
    3790:	41 54                	push   %r12
    3792:	55                   	push   %rbp
    3793:	53                   	push   %rbx
    3794:	48 89 fb             	mov    %rdi,%rbx
    3797:	48 83 ec 10          	sub    $0x10,%rsp
    379b:	48 03 5f 20          	add    0x20(%rdi),%rbx
    379f:	0f 84 f5 00 00 00    	je     389a <relocate_enclave+0x12a>
    37a5:	66 83 7f 38 00       	cmpw   $0x0,0x38(%rdi)
    37aa:	0f 84 68 01 00 00    	je     3918 <relocate_enclave+0x1a8>
    37b0:	49 89 fd             	mov    %rdi,%r13
    37b3:	31 ed                	xor    %ebp,%ebp
    37b5:	4c 8d 25 b8 3b 01 00 	lea    0x13bb8(%rip),%r12        # 17374 <g_dyn_entry_table+0x54>
    37bc:	eb 16                	jmp    37d4 <relocate_enclave+0x64>
    37be:	66 90                	xchg   %ax,%ax
    37c0:	41 0f b7 45 38       	movzwl 0x38(%r13),%eax
    37c5:	83 c5 01             	add    $0x1,%ebp
    37c8:	48 83 c3 38          	add    $0x38,%rbx
    37cc:	39 e8                	cmp    %ebp,%eax
    37ce:	0f 86 44 01 00 00    	jbe    3918 <relocate_enclave+0x1a8>
    37d4:	83 3b 02             	cmpl   $0x2,(%rbx)
    37d7:	75 e7                	jne    37c0 <relocate_enclave+0x50>
    37d9:	4c 8b 5b 20          	mov    0x20(%rbx),%r11
    37dd:	4c 89 e8             	mov    %r13,%rax
    37e0:	48 03 43 18          	add    0x18(%rbx),%rax
    37e4:	49 c1 eb 04          	shr    $0x4,%r11
    37e8:	4d 85 db             	test   %r11,%r11
    37eb:	48 89 c7             	mov    %rax,%rdi
    37ee:	74 d0                	je     37c0 <relocate_enclave+0x50>
    37f0:	4c 8b 00             	mov    (%rax),%r8
    37f3:	4d 85 c0             	test   %r8,%r8
    37f6:	74 c8                	je     37c0 <relocate_enclave+0x50>
    37f8:	49 c1 e3 04          	shl    $0x4,%r11
    37fc:	45 31 ff             	xor    %r15d,%r15d
    37ff:	45 31 f6             	xor    %r14d,%r14d
    3802:	49 01 c3             	add    %rax,%r11
    3805:	45 31 c9             	xor    %r9d,%r9d
    3808:	31 c0                	xor    %eax,%eax
    380a:	31 f6                	xor    %esi,%esi
    380c:	45 31 d2             	xor    %r10d,%r10d
    380f:	90                   	nop
    3810:	49 83 f8 17          	cmp    $0x17,%r8
    3814:	77 12                	ja     3828 <relocate_enclave+0xb8>
    3816:	4f 63 04 84          	movslq (%r12,%r8,4),%r8
    381a:	4d 01 e0             	add    %r12,%r8
    381d:	41 ff e0             	jmpq   *%r8
    3820:	4c 8b 4f 08          	mov    0x8(%rdi),%r9
    3824:	0f 1f 40 00          	nopl   0x0(%rax)
    3828:	48 83 c7 10          	add    $0x10,%rdi
    382c:	4c 39 df             	cmp    %r11,%rdi
    382f:	74 08                	je     3839 <relocate_enclave+0xc9>
    3831:	4c 8b 07             	mov    (%rdi),%r8
    3834:	4d 85 c0             	test   %r8,%r8
    3837:	75 d7                	jne    3810 <relocate_enclave+0xa0>
    3839:	48 85 f6             	test   %rsi,%rsi
    383c:	0f 84 be 00 00 00    	je     3900 <relocate_enclave+0x190>
    3842:	4d 85 f6             	test   %r14,%r14
    3845:	4c 89 0c 24          	mov    %r9,(%rsp)
    3849:	74 4f                	je     389a <relocate_enclave+0x12a>
    384b:	31 d2                	xor    %edx,%edx
    384d:	4c 89 ef             	mov    %r13,%rdi
    3850:	4c 89 54 24 08       	mov    %r10,0x8(%rsp)
    3855:	49 f7 f6             	div    %r14
    3858:	4c 89 d2             	mov    %r10,%rdx
    385b:	48 89 c1             	mov    %rax,%rcx
    385e:	e8 ad fc ff ff       	callq  3510 <do_relocs>
    3863:	85 c0                	test   %eax,%eax
    3865:	4c 8b 54 24 08       	mov    0x8(%rsp),%r10
    386a:	4c 8b 0c 24          	mov    (%rsp),%r9
    386e:	75 2a                	jne    389a <relocate_enclave+0x12a>
    3870:	4d 85 c9             	test   %r9,%r9
    3873:	0f 84 47 ff ff ff    	je     37c0 <relocate_enclave+0x50>
    3879:	31 d2                	xor    %edx,%edx
    387b:	4c 89 f8             	mov    %r15,%rax
    387e:	4c 89 ce             	mov    %r9,%rsi
    3881:	49 f7 f6             	div    %r14
    3884:	4c 89 ef             	mov    %r13,%rdi
    3887:	4c 89 d2             	mov    %r10,%rdx
    388a:	48 89 c1             	mov    %rax,%rcx
    388d:	e8 7e fc ff ff       	callq  3510 <do_relocs>
    3892:	85 c0                	test   %eax,%eax
    3894:	0f 84 26 ff ff ff    	je     37c0 <relocate_enclave+0x50>
    389a:	48 83 c4 10          	add    $0x10,%rsp
    389e:	b8 ff ff ff ff       	mov    $0xffffffff,%eax
    38a3:	5b                   	pop    %rbx
    38a4:	5d                   	pop    %rbp
    38a5:	41 5c                	pop    %r12
    38a7:	41 5d                	pop    %r13
    38a9:	41 5e                	pop    %r14
    38ab:	41 5f                	pop    %r15
    38ad:	c3                   	retq   
    38ae:	66 90                	xchg   %ax,%ax
    38b0:	4c 8b 77 08          	mov    0x8(%rdi),%r14
    38b4:	e9 6f ff ff ff       	jmpq   3828 <relocate_enclave+0xb8>
    38b9:	0f 1f 80 00 00 00 00 	nopl   0x0(%rax)
    38c0:	4c 8b 7f 08          	mov    0x8(%rdi),%r15
    38c4:	e9 5f ff ff ff       	jmpq   3828 <relocate_enclave+0xb8>
    38c9:	0f 1f 80 00 00 00 00 	nopl   0x0(%rax)
    38d0:	48 8b 77 08          	mov    0x8(%rdi),%rsi
    38d4:	e9 4f ff ff ff       	jmpq   3828 <relocate_enclave+0xb8>
    38d9:	0f 1f 80 00 00 00 00 	nopl   0x0(%rax)
    38e0:	4c 8b 57 08          	mov    0x8(%rdi),%r10
    38e4:	e9 3f ff ff ff       	jmpq   3828 <relocate_enclave+0xb8>
    38e9:	0f 1f 80 00 00 00 00 	nopl   0x0(%rax)
    38f0:	48 8b 47 08          	mov    0x8(%rdi),%rax
    38f4:	e9 2f ff ff ff       	jmpq   3828 <relocate_enclave+0xb8>
    38f9:	0f 1f 80 00 00 00 00 	nopl   0x0(%rax)
    3900:	4d 85 c9             	test   %r9,%r9
    3903:	0f 84 b7 fe ff ff    	je     37c0 <relocate_enclave+0x50>
    3909:	4d 85 f6             	test   %r14,%r14
    390c:	0f 85 67 ff ff ff    	jne    3879 <relocate_enclave+0x109>
    3912:	eb 86                	jmp    389a <relocate_enclave+0x12a>
    3914:	0f 1f 40 00          	nopl   0x0(%rax)
    3918:	48 83 c4 10          	add    $0x10,%rsp
    391c:	31 c0                	xor    %eax,%eax
    391e:	5b                   	pop    %rbx
    391f:	5d                   	pop    %rbp
    3920:	41 5c                	pop    %r12
    3922:	41 5d                	pop    %r13
    3924:	41 5e                	pop    %r14
    3926:	41 5f                	pop    %r15
    3928:	c3                   	retq   
    3929:	0f 1f 80 00 00 00 00 	nopl   0x0(%rax)

0000000000003930 <elf_tls_info>:
    3930:	48 85 ff             	test   %rdi,%rdi
    3933:	b8 ff ff ff ff       	mov    $0xffffffff,%eax
    3938:	74 08                	je     3942 <elf_tls_info+0x12>
    393a:	81 3f 7f 45 4c 46    	cmpl   $0x464c457f,(%rdi)
    3940:	74 06                	je     3948 <elf_tls_info+0x18>
    3942:	f3 c3                	repz retq 
    3944:	0f 1f 40 00          	nopl   0x0(%rax)
    3948:	66 83 7f 10 03       	cmpw   $0x3,0x10(%rdi)
    394d:	75 f3                	jne    3942 <elf_tls_info+0x12>
    394f:	48 89 f8             	mov    %rdi,%rax
    3952:	48 03 47 20          	add    0x20(%rdi),%rax
    3956:	48 85 f6             	test   %rsi,%rsi
    3959:	41 0f 94 c0          	sete   %r8b
    395d:	48 85 d2             	test   %rdx,%rdx
    3960:	0f 94 c1             	sete   %cl
    3963:	41 08 c8             	or     %cl,%r8b
    3966:	75 69                	jne    39d1 <elf_tls_info+0xa1>
    3968:	48 85 c0             	test   %rax,%rax
    396b:	74 64                	je     39d1 <elf_tls_info+0xa1>
    396d:	0f b7 4f 38          	movzwl 0x38(%rdi),%ecx
    3971:	48 c7 06 00 00 00 00 	movq   $0x0,(%rsi)
    3978:	48 c7 02 00 00 00 00 	movq   $0x0,(%rdx)
    397f:	85 c9                	test   %ecx,%ecx
    3981:	74 33                	je     39b6 <elf_tls_info+0x86>
    3983:	83 38 07             	cmpl   $0x7,(%rax)
    3986:	74 38                	je     39c0 <elf_tls_info+0x90>
    3988:	83 e9 01             	sub    $0x1,%ecx
    398b:	4c 8d 04 cd 00 00 00 	lea    0x0(,%rcx,8),%r8
    3992:	00 
    3993:	48 c1 e1 06          	shl    $0x6,%rcx
    3997:	4c 29 c1             	sub    %r8,%rcx
    399a:	48 8d 4c 08 38       	lea    0x38(%rax,%rcx,1),%rcx
    399f:	eb 0c                	jmp    39ad <elf_tls_info+0x7d>
    39a1:	0f 1f 80 00 00 00 00 	nopl   0x0(%rax)
    39a8:	83 38 07             	cmpl   $0x7,(%rax)
    39ab:	74 13                	je     39c0 <elf_tls_info+0x90>
    39ad:	48 83 c0 38          	add    $0x38,%rax
    39b1:	48 39 c8             	cmp    %rcx,%rax
    39b4:	75 f2                	jne    39a8 <elf_tls_info+0x78>
    39b6:	31 c0                	xor    %eax,%eax
    39b8:	c3                   	retq   
    39b9:	0f 1f 80 00 00 00 00 	nopl   0x0(%rax)
    39c0:	48 03 78 10          	add    0x10(%rax),%rdi
    39c4:	48 89 3e             	mov    %rdi,(%rsi)
    39c7:	48 8b 40 20          	mov    0x20(%rax),%rax
    39cb:	48 89 02             	mov    %rax,(%rdx)
    39ce:	31 c0                	xor    %eax,%eax
    39d0:	c3                   	retq   
    39d1:	b8 ff ff ff ff       	mov    $0xffffffff,%eax
    39d6:	c3                   	retq   
    39d7:	66 0f 1f 84 00 00 00 	nopw   0x0(%rax,%rax,1)
    39de:	00 00 

00000000000039e0 <elf_get_init_array>:
    39e0:	48 85 ff             	test   %rdi,%rdi
    39e3:	b8 ff ff ff ff       	mov    $0xffffffff,%eax
    39e8:	74 08                	je     39f2 <elf_get_init_array+0x12>
    39ea:	81 3f 7f 45 4c 46    	cmpl   $0x464c457f,(%rdi)
    39f0:	74 02                	je     39f4 <elf_get_init_array+0x14>
    39f2:	f3 c3                	repz retq 
    39f4:	66 83 7f 10 03       	cmpw   $0x3,0x10(%rdi)
    39f9:	75 f7                	jne    39f2 <elf_get_init_array+0x12>
    39fb:	49 89 f9             	mov    %rdi,%r9
    39fe:	4c 03 4f 20          	add    0x20(%rdi),%r9
    3a02:	48 85 f6             	test   %rsi,%rsi
    3a05:	0f 94 c1             	sete   %cl
    3a08:	48 85 d2             	test   %rdx,%rdx
    3a0b:	0f 94 c0             	sete   %al
    3a0e:	08 c1                	or     %al,%cl
    3a10:	0f 85 9d 00 00 00    	jne    3ab3 <elf_get_init_array+0xd3>
    3a16:	4d 85 c9             	test   %r9,%r9
    3a19:	0f 84 94 00 00 00    	je     3ab3 <elf_get_init_array+0xd3>
    3a1f:	0f b7 47 38          	movzwl 0x38(%rdi),%eax
    3a23:	48 c7 06 00 00 00 00 	movq   $0x0,(%rsi)
    3a2a:	48 c7 02 00 00 00 00 	movq   $0x0,(%rdx)
    3a31:	85 c0                	test   %eax,%eax
    3a33:	74 7b                	je     3ab0 <elf_get_init_array+0xd0>
    3a35:	83 e8 01             	sub    $0x1,%eax
    3a38:	48 8d 0c c5 00 00 00 	lea    0x0(,%rax,8),%rcx
    3a3f:	00 
    3a40:	48 c1 e0 06          	shl    $0x6,%rax
    3a44:	48 29 c8             	sub    %rcx,%rax
    3a47:	4d 8d 54 01 38       	lea    0x38(%r9,%rax,1),%r10
    3a4c:	eb 0b                	jmp    3a59 <elf_get_init_array+0x79>
    3a4e:	66 90                	xchg   %ax,%ax
    3a50:	49 83 c1 38          	add    $0x38,%r9
    3a54:	4d 39 d1             	cmp    %r10,%r9
    3a57:	74 57                	je     3ab0 <elf_get_init_array+0xd0>
    3a59:	41 83 39 02          	cmpl   $0x2,(%r9)
    3a5d:	75 f1                	jne    3a50 <elf_get_init_array+0x70>
    3a5f:	4d 8b 41 20          	mov    0x20(%r9),%r8
    3a63:	48 89 f8             	mov    %rdi,%rax
    3a66:	49 03 41 18          	add    0x18(%r9),%rax
    3a6a:	49 c1 e8 04          	shr    $0x4,%r8
    3a6e:	4d 85 c0             	test   %r8,%r8
    3a71:	74 dd                	je     3a50 <elf_get_init_array+0x70>
    3a73:	49 c1 e0 04          	shl    $0x4,%r8
    3a77:	49 01 c0             	add    %rax,%r8
    3a7a:	eb 1a                	jmp    3a96 <elf_get_init_array+0xb6>
    3a7c:	0f 1f 40 00          	nopl   0x0(%rax)
    3a80:	48 83 f9 1b          	cmp    $0x1b,%rcx
    3a84:	75 07                	jne    3a8d <elf_get_init_array+0xad>
    3a86:	48 8b 48 08          	mov    0x8(%rax),%rcx
    3a8a:	48 89 0a             	mov    %rcx,(%rdx)
    3a8d:	48 83 c0 10          	add    $0x10,%rax
    3a91:	49 39 c0             	cmp    %rax,%r8
    3a94:	74 ba                	je     3a50 <elf_get_init_array+0x70>
    3a96:	48 8b 08             	mov    (%rax),%rcx
    3a99:	48 83 f9 19          	cmp    $0x19,%rcx
    3a9d:	75 e1                	jne    3a80 <elf_get_init_array+0xa0>
    3a9f:	48 8b 48 08          	mov    0x8(%rax),%rcx
    3aa3:	48 89 0e             	mov    %rcx,(%rsi)
    3aa6:	eb e5                	jmp    3a8d <elf_get_init_array+0xad>
    3aa8:	0f 1f 84 00 00 00 00 	nopl   0x0(%rax,%rax,1)
    3aaf:	00 
    3ab0:	31 c0                	xor    %eax,%eax
    3ab2:	c3                   	retq   
    3ab3:	b8 ff ff ff ff       	mov    $0xffffffff,%eax
    3ab8:	c3                   	retq   
    3ab9:	0f 1f 80 00 00 00 00 	nopl   0x0(%rax)

0000000000003ac0 <elf_get_uninit_array>:
    3ac0:	48 85 ff             	test   %rdi,%rdi
    3ac3:	b8 ff ff ff ff       	mov    $0xffffffff,%eax
    3ac8:	74 08                	je     3ad2 <elf_get_uninit_array+0x12>
    3aca:	81 3f 7f 45 4c 46    	cmpl   $0x464c457f,(%rdi)
    3ad0:	74 02                	je     3ad4 <elf_get_uninit_array+0x14>
    3ad2:	f3 c3                	repz retq 
    3ad4:	66 83 7f 10 03       	cmpw   $0x3,0x10(%rdi)
    3ad9:	75 f7                	jne    3ad2 <elf_get_uninit_array+0x12>
    3adb:	49 89 f9             	mov    %rdi,%r9
    3ade:	4c 03 4f 20          	add    0x20(%rdi),%r9
    3ae2:	48 85 f6             	test   %rsi,%rsi
    3ae5:	0f 94 c1             	sete   %cl
    3ae8:	48 85 d2             	test   %rdx,%rdx
    3aeb:	0f 94 c0             	sete   %al
    3aee:	08 c1                	or     %al,%cl
    3af0:	0f 85 9d 00 00 00    	jne    3b93 <elf_get_uninit_array+0xd3>
    3af6:	4d 85 c9             	test   %r9,%r9
    3af9:	0f 84 94 00 00 00    	je     3b93 <elf_get_uninit_array+0xd3>
    3aff:	0f b7 47 38          	movzwl 0x38(%rdi),%eax
    3b03:	48 c7 06 00 00 00 00 	movq   $0x0,(%rsi)
    3b0a:	48 c7 02 00 00 00 00 	movq   $0x0,(%rdx)
    3b11:	85 c0                	test   %eax,%eax
    3b13:	74 7b                	je     3b90 <elf_get_uninit_array+0xd0>
    3b15:	83 e8 01             	sub    $0x1,%eax
    3b18:	48 8d 0c c5 00 00 00 	lea    0x0(,%rax,8),%rcx
    3b1f:	00 
    3b20:	48 c1 e0 06          	shl    $0x6,%rax
    3b24:	48 29 c8             	sub    %rcx,%rax
    3b27:	4d 8d 54 01 38       	lea    0x38(%r9,%rax,1),%r10
    3b2c:	eb 0b                	jmp    3b39 <elf_get_uninit_array+0x79>
    3b2e:	66 90                	xchg   %ax,%ax
    3b30:	49 83 c1 38          	add    $0x38,%r9
    3b34:	4d 39 d1             	cmp    %r10,%r9
    3b37:	74 57                	je     3b90 <elf_get_uninit_array+0xd0>
    3b39:	41 83 39 02          	cmpl   $0x2,(%r9)
    3b3d:	75 f1                	jne    3b30 <elf_get_uninit_array+0x70>
    3b3f:	4d 8b 41 20          	mov    0x20(%r9),%r8
    3b43:	48 89 f8             	mov    %rdi,%rax
    3b46:	49 03 41 18          	add    0x18(%r9),%rax
    3b4a:	49 c1 e8 04          	shr    $0x4,%r8
    3b4e:	4d 85 c0             	test   %r8,%r8
    3b51:	74 dd                	je     3b30 <elf_get_uninit_array+0x70>
    3b53:	49 c1 e0 04          	shl    $0x4,%r8
    3b57:	49 01 c0             	add    %rax,%r8
    3b5a:	eb 1a                	jmp    3b76 <elf_get_uninit_array+0xb6>
    3b5c:	0f 1f 40 00          	nopl   0x0(%rax)
    3b60:	48 83 f9 1c          	cmp    $0x1c,%rcx
    3b64:	75 07                	jne    3b6d <elf_get_uninit_array+0xad>
    3b66:	48 8b 48 08          	mov    0x8(%rax),%rcx
    3b6a:	48 89 0a             	mov    %rcx,(%rdx)
    3b6d:	48 83 c0 10          	add    $0x10,%rax
    3b71:	49 39 c0             	cmp    %rax,%r8
    3b74:	74 ba                	je     3b30 <elf_get_uninit_array+0x70>
    3b76:	48 8b 08             	mov    (%rax),%rcx
    3b79:	48 83 f9 1a          	cmp    $0x1a,%rcx
    3b7d:	75 e1                	jne    3b60 <elf_get_uninit_array+0xa0>
    3b7f:	48 8b 48 08          	mov    0x8(%rax),%rcx
    3b83:	48 89 0e             	mov    %rcx,(%rsi)
    3b86:	eb e5                	jmp    3b6d <elf_get_uninit_array+0xad>
    3b88:	0f 1f 84 00 00 00 00 	nopl   0x0(%rax,%rax,1)
    3b8f:	00 
    3b90:	31 c0                	xor    %eax,%eax
    3b92:	c3                   	retq   
    3b93:	b8 ff ff ff ff       	mov    $0xffffffff,%eax
    3b98:	c3                   	retq   
    3b99:	0f 1f 80 00 00 00 00 	nopl   0x0(%rax)

0000000000003ba0 <change_protection>:
    3ba0:	48 85 ff             	test   %rdi,%rdi
    3ba3:	b8 01 00 00 00       	mov    $0x1,%eax
    3ba8:	0f 84 e2 01 00 00    	je     3d90 <change_protection+0x1f0>
    3bae:	81 3f 7f 45 4c 46    	cmpl   $0x464c457f,(%rdi)
    3bb4:	74 0a                	je     3bc0 <change_protection+0x20>
    3bb6:	f3 c3                	repz retq 
    3bb8:	0f 1f 84 00 00 00 00 	nopl   0x0(%rax,%rax,1)
    3bbf:	00 
    3bc0:	66 83 7f 10 03       	cmpw   $0x3,0x10(%rdi)
    3bc5:	75 ef                	jne    3bb6 <change_protection+0x16>
    3bc7:	41 56                	push   %r14
    3bc9:	41 55                	push   %r13
    3bcb:	41 54                	push   %r12
    3bcd:	55                   	push   %rbp
    3bce:	53                   	push   %rbx
    3bcf:	48 89 fb             	mov    %rdi,%rbx
    3bd2:	48 03 5f 20          	add    0x20(%rdi),%rbx
    3bd6:	0f 84 d2 00 00 00    	je     3cae <change_protection+0x10e>
    3bdc:	0f b7 47 38          	movzwl 0x38(%rdi),%eax
    3be0:	85 c0                	test   %eax,%eax
    3be2:	0f 84 30 01 00 00    	je     3d18 <change_protection+0x178>
    3be8:	83 3b 02             	cmpl   $0x2,(%rbx)
    3beb:	0f 84 33 01 00 00    	je     3d24 <change_protection+0x184>
    3bf1:	83 e8 01             	sub    $0x1,%eax
    3bf4:	48 8d 14 c5 00 00 00 	lea    0x0(,%rax,8),%rdx
    3bfb:	00 
    3bfc:	48 c1 e0 06          	shl    $0x6,%rax
    3c00:	48 29 d0             	sub    %rdx,%rax
    3c03:	48 8d 54 03 38       	lea    0x38(%rbx,%rax,1),%rdx
    3c08:	48 89 d8             	mov    %rbx,%rax
    3c0b:	eb 0c                	jmp    3c19 <change_protection+0x79>
    3c0d:	0f 1f 00             	nopl   (%rax)
    3c10:	83 38 02             	cmpl   $0x2,(%rax)
    3c13:	0f 84 17 01 00 00    	je     3d30 <change_protection+0x190>
    3c19:	48 83 c0 38          	add    $0x38,%rax
    3c1d:	48 39 d0             	cmp    %rdx,%rax
    3c20:	75 ee                	jne    3c10 <change_protection+0x70>
    3c22:	45 31 f6             	xor    %r14d,%r14d
    3c25:	49 89 fd             	mov    %rdi,%r13
    3c28:	45 31 e4             	xor    %r12d,%r12d
    3c2b:	48 bd ff ff ff ff 02 	movabs $0x2ffffffff,%rbp
    3c32:	00 00 00 
    3c35:	eb 1f                	jmp    3c56 <change_protection+0xb6>
    3c37:	66 0f 1f 84 00 00 00 	nopw   0x0(%rax,%rax,1)
    3c3e:	00 00 
    3c40:	41 0f b7 45 38       	movzwl 0x38(%r13),%eax
    3c45:	41 83 c4 01          	add    $0x1,%r12d
    3c49:	48 83 c3 38          	add    $0x38,%rbx
    3c4d:	44 39 e0             	cmp    %r12d,%eax
    3c50:	0f 86 c2 00 00 00    	jbe    3d18 <change_protection+0x178>
    3c56:	45 85 f6             	test   %r14d,%r14d
    3c59:	74 0c                	je     3c67 <change_protection+0xc7>
    3c5b:	48 89 e8             	mov    %rbp,%rax
    3c5e:	48 23 03             	and    (%rbx),%rax
    3c61:	48 83 f8 01          	cmp    $0x1,%rax
    3c65:	74 59                	je     3cc0 <change_protection+0x120>
    3c67:	81 3b 52 e5 74 64    	cmpl   $0x6474e552,(%rbx)
    3c6d:	75 d1                	jne    3c40 <change_protection+0xa0>
    3c6f:	48 8b 43 10          	mov    0x10(%rbx),%rax
    3c73:	48 89 c7             	mov    %rax,%rdi
    3c76:	48 03 43 28          	add    0x28(%rbx),%rax
    3c7a:	48 81 e7 00 f0 ff ff 	and    $0xfffffffffffff000,%rdi
    3c81:	4c 01 ef             	add    %r13,%rdi
    3c84:	48 89 c6             	mov    %rax,%rsi
    3c87:	48 81 c6 ff 0f 00 00 	add    $0xfff,%rsi
    3c8e:	48 81 e6 00 f0 ff ff 	and    $0xfffffffffffff000,%rsi
    3c95:	4c 01 ee             	add    %r13,%rsi
    3c98:	48 39 f7             	cmp    %rsi,%rdi
    3c9b:	74 a3                	je     3c40 <change_protection+0xa0>
    3c9d:	48 29 fe             	sub    %rdi,%rsi
    3ca0:	ba 01 00 00 00       	mov    $0x1,%edx
    3ca5:	e8 86 eb ff ff       	callq  2830 <trts_mprotect>
    3caa:	85 c0                	test   %eax,%eax
    3cac:	74 92                	je     3c40 <change_protection+0xa0>
    3cae:	5b                   	pop    %rbx
    3caf:	5d                   	pop    %rbp
    3cb0:	41 5c                	pop    %r12
    3cb2:	41 5d                	pop    %r13
    3cb4:	41 5e                	pop    %r14
    3cb6:	f3 c3                	repz retq 
    3cb8:	0f 1f 84 00 00 00 00 	nopl   0x0(%rax,%rax,1)
    3cbf:	00 
    3cc0:	48 8b 43 10          	mov    0x10(%rbx),%rax
    3cc4:	8b 7b 04             	mov    0x4(%rbx),%edi
    3cc7:	48 89 c1             	mov    %rax,%rcx
    3cca:	48 03 43 28          	add    0x28(%rbx),%rax
    3cce:	89 fa                	mov    %edi,%edx
    3cd0:	c1 ea 02             	shr    $0x2,%edx
    3cd3:	48 81 e1 00 f0 ff ff 	and    $0xfffffffffffff000,%rcx
    3cda:	83 e2 01             	and    $0x1,%edx
    3cdd:	48 89 c6             	mov    %rax,%rsi
    3ce0:	48 89 d0             	mov    %rdx,%rax
    3ce3:	48 81 c6 ff 0f 00 00 	add    $0xfff,%rsi
    3cea:	48 83 c8 04          	or     $0x4,%rax
    3cee:	48 81 e6 00 f0 ff ff 	and    $0xfffffffffffff000,%rsi
    3cf5:	83 e7 01             	and    $0x1,%edi
    3cf8:	49 8d 7c 0d 00       	lea    0x0(%r13,%rcx,1),%rdi
    3cfd:	48 0f 45 d0          	cmovne %rax,%rdx
    3d01:	48 29 ce             	sub    %rcx,%rsi
    3d04:	e8 27 eb ff ff       	callq  2830 <trts_mprotect>
    3d09:	85 c0                	test   %eax,%eax
    3d0b:	0f 84 56 ff ff ff    	je     3c67 <change_protection+0xc7>
    3d11:	eb 9b                	jmp    3cae <change_protection+0x10e>
    3d13:	0f 1f 44 00 00       	nopl   0x0(%rax,%rax,1)
    3d18:	5b                   	pop    %rbx
    3d19:	31 c0                	xor    %eax,%eax
    3d1b:	5d                   	pop    %rbp
    3d1c:	41 5c                	pop    %r12
    3d1e:	41 5d                	pop    %r13
    3d20:	41 5e                	pop    %r14
    3d22:	eb 92                	jmp    3cb6 <change_protection+0x116>
    3d24:	48 89 d8             	mov    %rbx,%rax
    3d27:	66 0f 1f 84 00 00 00 	nopw   0x0(%rax,%rax,1)
    3d2e:	00 00 
    3d30:	48 8b 48 20          	mov    0x20(%rax),%rcx
    3d34:	48 89 fa             	mov    %rdi,%rdx
    3d37:	48 03 50 18          	add    0x18(%rax),%rdx
    3d3b:	48 c1 e9 04          	shr    $0x4,%rcx
    3d3f:	48 85 c9             	test   %rcx,%rcx
    3d42:	48 89 d0             	mov    %rdx,%rax
    3d45:	0f 84 d7 fe ff ff    	je     3c22 <change_protection+0x82>
    3d4b:	48 8b 12             	mov    (%rdx),%rdx
    3d4e:	48 85 d2             	test   %rdx,%rdx
    3d51:	0f 84 cb fe ff ff    	je     3c22 <change_protection+0x82>
    3d57:	48 83 fa 16          	cmp    $0x16,%rdx
    3d5b:	74 35                	je     3d92 <change_protection+0x1f2>
    3d5d:	48 c1 e1 04          	shl    $0x4,%rcx
    3d61:	48 01 c1             	add    %rax,%rcx
    3d64:	eb 1c                	jmp    3d82 <change_protection+0x1e2>
    3d66:	66 2e 0f 1f 84 00 00 	nopw   %cs:0x0(%rax,%rax,1)
    3d6d:	00 00 00 
    3d70:	48 8b 10             	mov    (%rax),%rdx
    3d73:	48 85 d2             	test   %rdx,%rdx
    3d76:	0f 84 a6 fe ff ff    	je     3c22 <change_protection+0x82>
    3d7c:	48 83 fa 16          	cmp    $0x16,%rdx
    3d80:	74 10                	je     3d92 <change_protection+0x1f2>
    3d82:	48 83 c0 10          	add    $0x10,%rax
    3d86:	48 39 c8             	cmp    %rcx,%rax
    3d89:	75 e5                	jne    3d70 <change_protection+0x1d0>
    3d8b:	e9 92 fe ff ff       	jmpq   3c22 <change_protection+0x82>
    3d90:	f3 c3                	repz retq 
    3d92:	41 be 01 00 00 00    	mov    $0x1,%r14d
    3d98:	e9 88 fe ff ff       	jmpq   3c25 <change_protection+0x85>
    3d9d:	0f 1f 00             	nopl   (%rax)

0000000000003da0 <__cxa_atexit>:
    3da0:	41 55                	push   %r13
    3da2:	41 54                	push   %r12
    3da4:	49 89 f5             	mov    %rsi,%r13
    3da7:	55                   	push   %rbp
    3da8:	53                   	push   %rbx
    3da9:	48 89 fd             	mov    %rdi,%rbp
    3dac:	49 89 d4             	mov    %rdx,%r12
    3daf:	48 83 ec 18          	sub    $0x18,%rsp
    3db3:	64 48 8b 04 25 28 00 	mov    %fs:0x28,%rax
    3dba:	00 00 
    3dbc:	48 89 44 24 08       	mov    %rax,0x8(%rsp)
    3dc1:	31 c0                	xor    %eax,%eax
    3dc3:	48 83 3d 85 7b 21 00 	cmpq   $0x0,0x217b85(%rip)        # 21b950 <g_exit_function_cookie>
    3dca:	00 
    3dcb:	0f 84 8f 00 00 00    	je     3e60 <__cxa_atexit+0xc0>
    3dd1:	31 f6                	xor    %esi,%esi
    3dd3:	48 89 ef             	mov    %rbp,%rdi
    3dd6:	e8 c5 d4 ff ff       	callq  12a0 <sgx_is_within_enclave>
    3ddb:	85 c0                	test   %eax,%eax
    3ddd:	0f 84 a5 00 00 00    	je     3e88 <__cxa_atexit+0xe8>
    3de3:	bf 20 00 00 00       	mov    $0x20,%edi
    3de8:	e8 c3 0a 00 00       	callq  48b0 <dlmalloc>
    3ded:	48 85 c0             	test   %rax,%rax
    3df0:	48 89 c3             	mov    %rax,%rbx
    3df3:	0f 84 8f 00 00 00    	je     3e88 <__cxa_atexit+0xe8>
    3df9:	48 8b 35 50 7b 21 00 	mov    0x217b50(%rip),%rsi        # 21b950 <g_exit_function_cookie>
    3e00:	48 8d 3d 51 7b 21 00 	lea    0x217b51(%rip),%rdi        # 21b958 <g_exit_function_lock>
    3e07:	4c 89 60 10          	mov    %r12,0x10(%rax)
    3e0b:	48 31 f5             	xor    %rsi,%rbp
    3e0e:	4c 31 ee             	xor    %r13,%rsi
    3e11:	48 89 70 08          	mov    %rsi,0x8(%rax)
    3e15:	48 89 28             	mov    %rbp,(%rax)
    3e18:	e8 23 3d 00 00       	callq  7b40 <sgx_spin_lock>
    3e1d:	48 8b 05 3c 7b 21 00 	mov    0x217b3c(%rip),%rax        # 21b960 <g_exit_function>
    3e24:	48 8d 3d 2d 7b 21 00 	lea    0x217b2d(%rip),%rdi        # 21b958 <g_exit_function_lock>
    3e2b:	48 89 1d 2e 7b 21 00 	mov    %rbx,0x217b2e(%rip)        # 21b960 <g_exit_function>
    3e32:	48 89 43 18          	mov    %rax,0x18(%rbx)
    3e36:	e8 65 3d 00 00       	callq  7ba0 <sgx_spin_unlock>
    3e3b:	31 c0                	xor    %eax,%eax
    3e3d:	48 8b 4c 24 08       	mov    0x8(%rsp),%rcx
    3e42:	64 48 33 0c 25 28 00 	xor    %fs:0x28,%rcx
    3e49:	00 00 
    3e4b:	75 75                	jne    3ec2 <__cxa_atexit+0x122>
    3e4d:	48 83 c4 18          	add    $0x18,%rsp
    3e51:	5b                   	pop    %rbx
    3e52:	5d                   	pop    %rbp
    3e53:	41 5c                	pop    %r12
    3e55:	41 5d                	pop    %r13
    3e57:	c3                   	retq   
    3e58:	0f 1f 84 00 00 00 00 	nopl   0x0(%rax,%rax,1)
    3e5f:	00 
    3e60:	48 c7 04 24 00 00 00 	movq   $0x0,(%rsp)
    3e67:	00 
    3e68:	48 89 e3             	mov    %rsp,%rbx
    3e6b:	eb 0a                	jmp    3e77 <__cxa_atexit+0xd7>
    3e6d:	0f 1f 00             	nopl   (%rax)
    3e70:	48 83 3c 24 00       	cmpq   $0x0,(%rsp)
    3e75:	75 19                	jne    3e90 <__cxa_atexit+0xf0>
    3e77:	be 08 00 00 00       	mov    $0x8,%esi
    3e7c:	48 89 df             	mov    %rbx,%rdi
    3e7f:	e8 0c d6 ff ff       	callq  1490 <sgx_read_rand>
    3e84:	85 c0                	test   %eax,%eax
    3e86:	74 e8                	je     3e70 <__cxa_atexit+0xd0>
    3e88:	b8 ff ff ff ff       	mov    $0xffffffff,%eax
    3e8d:	eb ae                	jmp    3e3d <__cxa_atexit+0x9d>
    3e8f:	90                   	nop
    3e90:	48 8d 3d c1 7a 21 00 	lea    0x217ac1(%rip),%rdi        # 21b958 <g_exit_function_lock>
    3e97:	e8 a4 3c 00 00       	callq  7b40 <sgx_spin_lock>
    3e9c:	48 83 3d ac 7a 21 00 	cmpq   $0x0,0x217aac(%rip)        # 21b950 <g_exit_function_cookie>
    3ea3:	00 
    3ea4:	75 0b                	jne    3eb1 <__cxa_atexit+0x111>
    3ea6:	48 8b 04 24          	mov    (%rsp),%rax
    3eaa:	48 89 05 9f 7a 21 00 	mov    %rax,0x217a9f(%rip)        # 21b950 <g_exit_function_cookie>
    3eb1:	48 8d 3d a0 7a 21 00 	lea    0x217aa0(%rip),%rdi        # 21b958 <g_exit_function_lock>
    3eb8:	e8 e3 3c 00 00       	callq  7ba0 <sgx_spin_unlock>
    3ebd:	e9 0f ff ff ff       	jmpq   3dd1 <__cxa_atexit+0x31>
    3ec2:	e8 c9 01 00 00       	callq  4090 <__stack_chk_fail>
    3ec7:	66 0f 1f 84 00 00 00 	nopw   0x0(%rax,%rax,1)
    3ece:	00 00 

0000000000003ed0 <atexit>:
    3ed0:	48 8b 15 79 71 21 00 	mov    0x217179(%rip),%rdx        # 21b050 <__dso_handle>
    3ed7:	31 f6                	xor    %esi,%esi
    3ed9:	e9 c2 fe ff ff       	jmpq   3da0 <__cxa_atexit>
    3ede:	66 90                	xchg   %ax,%ax

0000000000003ee0 <init_global_object>:
    3ee0:	55                   	push   %rbp
    3ee1:	53                   	push   %rbx
    3ee2:	48 8d 3d 17 c1 ff ff 	lea    -0x3ee9(%rip),%rdi        # 0 <__ImageBase>
    3ee9:	48 83 ec 28          	sub    $0x28,%rsp
    3eed:	48 8d 54 24 10       	lea    0x10(%rsp),%rdx
    3ef2:	48 8d 74 24 08       	lea    0x8(%rsp),%rsi
    3ef7:	48 c7 44 24 08 00 00 	movq   $0x0,0x8(%rsp)
    3efe:	00 00 
    3f00:	64 48 8b 04 25 28 00 	mov    %fs:0x28,%rax
    3f07:	00 00 
    3f09:	48 89 44 24 18       	mov    %rax,0x18(%rsp)
    3f0e:	31 c0                	xor    %eax,%eax
    3f10:	48 c7 44 24 10 00 00 	movq   $0x0,0x10(%rsp)
    3f17:	00 00 
    3f19:	e8 c2 fa ff ff       	callq  39e0 <elf_get_init_array>
    3f1e:	85 c0                	test   %eax,%eax
    3f20:	75 0a                	jne    3f2c <init_global_object+0x4c>
    3f22:	48 8b 5c 24 08       	mov    0x8(%rsp),%rbx
    3f27:	48 85 db             	test   %rbx,%rbx
    3f2a:	75 1c                	jne    3f48 <init_global_object+0x68>
    3f2c:	48 8b 44 24 18       	mov    0x18(%rsp),%rax
    3f31:	64 48 33 04 25 28 00 	xor    %fs:0x28,%rax
    3f38:	00 00 
    3f3a:	75 41                	jne    3f7d <init_global_object+0x9d>
    3f3c:	48 83 c4 28          	add    $0x28,%rsp
    3f40:	5b                   	pop    %rbx
    3f41:	5d                   	pop    %rbp
    3f42:	c3                   	retq   
    3f43:	0f 1f 44 00 00       	nopl   0x0(%rax,%rax,1)
    3f48:	48 8b 6c 24 10       	mov    0x10(%rsp),%rbp
    3f4d:	48 85 ed             	test   %rbp,%rbp
    3f50:	74 da                	je     3f2c <init_global_object+0x4c>
    3f52:	48 8d 05 a7 c0 ff ff 	lea    -0x3f59(%rip),%rax        # 0 <__ImageBase>
    3f59:	48 83 e5 f8          	and    $0xfffffffffffffff8,%rbp
    3f5d:	48 01 c3             	add    %rax,%rbx
    3f60:	48 01 dd             	add    %rbx,%rbp
    3f63:	48 39 eb             	cmp    %rbp,%rbx
    3f66:	73 c4                	jae    3f2c <init_global_object+0x4c>
    3f68:	0f 1f 84 00 00 00 00 	nopl   0x0(%rax,%rax,1)
    3f6f:	00 
    3f70:	ff 13                	callq  *(%rbx)
    3f72:	48 83 c3 08          	add    $0x8,%rbx
    3f76:	48 39 dd             	cmp    %rbx,%rbp
    3f79:	77 f5                	ja     3f70 <init_global_object+0x90>
    3f7b:	eb af                	jmp    3f2c <init_global_object+0x4c>
    3f7d:	e8 0e 01 00 00       	callq  4090 <__stack_chk_fail>
    3f82:	66 2e 0f 1f 84 00 00 	nopw   %cs:0x0(%rax,%rax,1)
    3f89:	00 00 00 
    3f8c:	0f 1f 40 00          	nopl   0x0(%rax)

0000000000003f90 <uninit_global_object>:
    3f90:	55                   	push   %rbp
    3f91:	53                   	push   %rbx
    3f92:	48 83 ec 28          	sub    $0x28,%rsp
    3f96:	48 8b 1d c3 79 21 00 	mov    0x2179c3(%rip),%rbx        # 21b960 <g_exit_function>
    3f9d:	48 c7 05 b8 79 21 00 	movq   $0x0,0x2179b8(%rip)        # 21b960 <g_exit_function>
    3fa4:	00 00 00 00 
    3fa8:	64 48 8b 04 25 28 00 	mov    %fs:0x28,%rax
    3faf:	00 00 
    3fb1:	48 89 44 24 18       	mov    %rax,0x18(%rsp)
    3fb6:	31 c0                	xor    %eax,%eax
    3fb8:	48 85 db             	test   %rbx,%rbx
    3fbb:	74 2a                	je     3fe7 <uninit_global_object+0x57>
    3fbd:	0f 1f 00             	nopl   (%rax)
    3fc0:	48 8b 05 89 79 21 00 	mov    0x217989(%rip),%rax        # 21b950 <g_exit_function_cookie>
    3fc7:	48 89 c7             	mov    %rax,%rdi
    3fca:	48 33 03             	xor    (%rbx),%rax
    3fcd:	48 33 7b 08          	xor    0x8(%rbx),%rdi
    3fd1:	ff d0                	callq  *%rax
    3fd3:	48 8b 6b 18          	mov    0x18(%rbx),%rbp
    3fd7:	48 89 df             	mov    %rbx,%rdi
    3fda:	e8 b1 22 00 00       	callq  6290 <dlfree>
    3fdf:	48 85 ed             	test   %rbp,%rbp
    3fe2:	48 89 eb             	mov    %rbp,%rbx
    3fe5:	75 d9                	jne    3fc0 <uninit_global_object+0x30>
    3fe7:	48 8d 54 24 10       	lea    0x10(%rsp),%rdx
    3fec:	48 8d 74 24 08       	lea    0x8(%rsp),%rsi
    3ff1:	48 8d 3d 08 c0 ff ff 	lea    -0x3ff8(%rip),%rdi        # 0 <__ImageBase>
    3ff8:	e8 c3 fa ff ff       	callq  3ac0 <elf_get_uninit_array>
    3ffd:	48 8b 6c 24 08       	mov    0x8(%rsp),%rbp
    4002:	48 85 ed             	test   %rbp,%rbp
    4005:	74 0a                	je     4011 <uninit_global_object+0x81>
    4007:	48 8b 54 24 10       	mov    0x10(%rsp),%rdx
    400c:	48 85 d2             	test   %rdx,%rdx
    400f:	75 1f                	jne    4030 <uninit_global_object+0xa0>
    4011:	48 8b 44 24 18       	mov    0x18(%rsp),%rax
    4016:	64 48 33 04 25 28 00 	xor    %fs:0x28,%rax
    401d:	00 00 
    401f:	75 3c                	jne    405d <uninit_global_object+0xcd>
    4021:	48 83 c4 28          	add    $0x28,%rsp
    4025:	5b                   	pop    %rbx
    4026:	5d                   	pop    %rbp
    4027:	c3                   	retq   
    4028:	0f 1f 84 00 00 00 00 	nopl   0x0(%rax,%rax,1)
    402f:	00 
    4030:	48 8d 05 c9 bf ff ff 	lea    -0x4037(%rip),%rax        # 0 <__ImageBase>
    4037:	48 83 e2 f8          	and    $0xfffffffffffffff8,%rdx
    403b:	48 01 c5             	add    %rax,%rbp
    403e:	48 8d 5c 15 f8       	lea    -0x8(%rbp,%rdx,1),%rbx
    4043:	48 39 dd             	cmp    %rbx,%rbp
    4046:	77 c9                	ja     4011 <uninit_global_object+0x81>
    4048:	0f 1f 84 00 00 00 00 	nopl   0x0(%rax,%rax,1)
    404f:	00 
    4050:	ff 13                	callq  *(%rbx)
    4052:	48 83 eb 08          	sub    $0x8,%rbx
    4056:	48 39 dd             	cmp    %rbx,%rbp
    4059:	76 f5                	jbe    4050 <uninit_global_object+0xc0>
    405b:	eb b4                	jmp    4011 <uninit_global_object+0x81>
    405d:	e8 2e 00 00 00       	callq  4090 <__stack_chk_fail>
    4062:	66 2e 0f 1f 84 00 00 	nopw   %cs:0x0(%rax,%rax,1)
    4069:	00 00 00 
    406c:	0f 1f 40 00          	nopl   0x0(%rax)

0000000000004070 <__tls_get_addr>:
    4070:	53                   	push   %rbx
    4071:	48 89 fb             	mov    %rdi,%rbx
    4074:	e8 35 2f 01 00       	callq  16fae <get_thread_data>
    4079:	48 8b 40 50          	mov    0x50(%rax),%rax
    407d:	48 03 43 08          	add    0x8(%rbx),%rax
    4081:	5b                   	pop    %rbx
    4082:	c3                   	retq   
    4083:	66 2e 0f 1f 84 00 00 	nopw   %cs:0x0(%rax,%rax,1)
    408a:	00 00 00 
    408d:	0f 1f 00             	nopl   (%rax)

0000000000004090 <__stack_chk_fail>:
    4090:	48 83 ec 08          	sub    $0x8,%rsp
    4094:	e8 11 32 01 00       	callq  172aa <abort>
    4099:	0f 1f 80 00 00 00 00 	nopl   0x0(%rax)

00000000000040a0 <__stack_chk_fail_local>:
    40a0:	48 83 ec 08          	sub    $0x8,%rsp
    40a4:	e8 01 32 01 00       	callq  172aa <abort>
    40a9:	0f 1f 80 00 00 00 00 	nopl   0x0(%rax)

00000000000040b0 <__intel_security_check_cookie>:
    40b0:	48 39 3d 81 6d 21 00 	cmp    %rdi,0x216d81(%rip)        # 21ae38 <__intel_security_cookie>
    40b7:	75 02                	jne    40bb <__intel_security_check_cookie+0xb>
    40b9:	f3 c3                	repz retq 
    40bb:	50                   	push   %rax
    40bc:	e8 e9 31 01 00       	callq  172aa <abort>
    40c1:	66 2e 0f 1f 84 00 00 	nopw   %cs:0x0(%rax,%rax,1)
    40c8:	00 00 00 
    40cb:	0f 1f 44 00 00       	nopl   0x0(%rax,%rax,1)

00000000000040d0 <init_mparams>:
    40d0:	48 83 ec 18          	sub    $0x18,%rsp
    40d4:	64 48 8b 04 25 28 00 	mov    %fs:0x28,%rax
    40db:	00 00 
    40dd:	48 89 44 24 08       	mov    %rax,0x8(%rsp)
    40e2:	31 c0                	xor    %eax,%eax
    40e4:	b8 01 00 00 00       	mov    $0x1,%eax
    40e9:	87 05 81 7c 21 00    	xchg   %eax,0x217c81(%rip)        # 21bd70 <malloc_global_mutex>
    40ef:	85 c0                	test   %eax,%eax
    40f1:	74 23                	je     4116 <init_mparams+0x46>
    40f3:	ba 01 00 00 00       	mov    $0x1,%edx
    40f8:	0f 1f 84 00 00 00 00 	nopl   0x0(%rax,%rax,1)
    40ff:	00 
    4100:	8b 05 6a 7c 21 00    	mov    0x217c6a(%rip),%eax        # 21bd70 <malloc_global_mutex>
    4106:	85 c0                	test   %eax,%eax
    4108:	75 f6                	jne    4100 <init_mparams+0x30>
    410a:	89 d0                	mov    %edx,%eax
    410c:	87 05 5e 7c 21 00    	xchg   %eax,0x217c5e(%rip)        # 21bd70 <malloc_global_mutex>
    4112:	85 c0                	test   %eax,%eax
    4114:	75 ea                	jne    4100 <init_mparams+0x30>
    4116:	48 83 3d 22 7c 21 00 	cmpq   $0x0,0x217c22(%rip)        # 21bd40 <mparams>
    411d:	00 
    411e:	75 74                	jne    4194 <init_mparams+0xc4>
    4120:	48 89 e7             	mov    %rsp,%rdi
    4123:	be 08 00 00 00       	mov    $0x8,%esi
    4128:	48 c7 05 1d 7c 21 00 	movq   $0x1000,0x217c1d(%rip)        # 21bd50 <mparams+0x10>
    412f:	00 10 00 00 
    4133:	48 c7 05 0a 7c 21 00 	movq   $0x1000,0x217c0a(%rip)        # 21bd48 <mparams+0x8>
    413a:	00 10 00 00 
    413e:	48 c7 05 0f 7c 21 00 	movq   $0xffffffffffffffff,0x217c0f(%rip)        # 21bd58 <mparams+0x18>
    4145:	ff ff ff ff 
    4149:	48 c7 05 0c 7c 21 00 	movq   $0x200000,0x217c0c(%rip)        # 21bd60 <mparams+0x20>
    4150:	00 00 20 00 
    4154:	c7 05 0a 7c 21 00 02 	movl   $0x2,0x217c0a(%rip)        # 21bd68 <mparams+0x28>
    415b:	00 00 00 
    415e:	c7 05 88 7b 21 00 02 	movl   $0x2,0x217b88(%rip)        # 21bcf0 <_gm_+0x370>
    4165:	00 00 00 
    4168:	c7 05 82 7b 21 00 00 	movl   $0x0,0x217b82(%rip)        # 21bcf4 <_gm_+0x374>
    416f:	00 00 00 
    4172:	e8 19 d3 ff ff       	callq  1490 <sgx_read_rand>
    4177:	85 c0                	test   %eax,%eax
    4179:	75 3d                	jne    41b8 <init_mparams+0xe8>
    417b:	48 8b 04 24          	mov    (%rsp),%rax
    417f:	48 35 55 55 55 55    	xor    $0x55555555,%rax
    4185:	48 83 e0 f8          	and    $0xfffffffffffffff8,%rax
    4189:	48 83 c8 08          	or     $0x8,%rax
    418d:	48 89 05 ac 7b 21 00 	mov    %rax,0x217bac(%rip)        # 21bd40 <mparams>
    4194:	c7 05 d2 7b 21 00 00 	movl   $0x0,0x217bd2(%rip)        # 21bd70 <malloc_global_mutex>
    419b:	00 00 00 
    419e:	b8 01 00 00 00       	mov    $0x1,%eax
    41a3:	48 8b 4c 24 08       	mov    0x8(%rsp),%rcx
    41a8:	64 48 33 0c 25 28 00 	xor    %fs:0x28,%rcx
    41af:	00 00 
    41b1:	75 0a                	jne    41bd <init_mparams+0xed>
    41b3:	48 83 c4 18          	add    $0x18,%rsp
    41b7:	c3                   	retq   
    41b8:	e8 ed 30 01 00       	callq  172aa <abort>
    41bd:	e8 ce fe ff ff       	callq  4090 <__stack_chk_fail>
    41c2:	66 2e 0f 1f 84 00 00 	nopw   %cs:0x0(%rax,%rax,1)
    41c9:	00 00 00 
    41cc:	0f 1f 40 00          	nopl   0x0(%rax)

00000000000041d0 <dispose_chunk>:
    41d0:	48 8b 46 08          	mov    0x8(%rsi),%rax
    41d4:	53                   	push   %rbx
    41d5:	4c 8d 04 16          	lea    (%rsi,%rdx,1),%r8
    41d9:	a8 01                	test   $0x1,%al
    41db:	0f 85 ff 01 00 00    	jne    43e0 <dispose_chunk+0x210>
    41e1:	a8 03                	test   $0x3,%al
    41e3:	0f 84 ec 01 00 00    	je     43d5 <dispose_chunk+0x205>
    41e9:	48 8b 0e             	mov    (%rsi),%rcx
    41ec:	4c 8b 57 18          	mov    0x18(%rdi),%r10
    41f0:	48 29 ce             	sub    %rcx,%rsi
    41f3:	48 01 ca             	add    %rcx,%rdx
    41f6:	4c 39 d6             	cmp    %r10,%rsi
    41f9:	0f 82 69 03 00 00    	jb     4568 <dispose_chunk+0x398>
    41ff:	48 3b 77 20          	cmp    0x20(%rdi),%rsi
    4203:	0f 84 97 04 00 00    	je     46a0 <dispose_chunk+0x4d0>
    4209:	48 c1 e9 03          	shr    $0x3,%rcx
    420d:	48 83 f9 1f          	cmp    $0x1f,%rcx
    4211:	0f 86 d1 03 00 00    	jbe    45e8 <dispose_chunk+0x418>
    4217:	48 8b 46 18          	mov    0x18(%rsi),%rax
    421b:	48 8b 5e 30          	mov    0x30(%rsi),%rbx
    421f:	48 39 c6             	cmp    %rax,%rsi
    4222:	0f 84 3e 05 00 00    	je     4766 <dispose_chunk+0x596>
    4228:	48 8b 4e 10          	mov    0x10(%rsi),%rcx
    422c:	49 39 ca             	cmp    %rcx,%r10
    422f:	0f 87 33 03 00 00    	ja     4568 <dispose_chunk+0x398>
    4235:	48 3b 71 18          	cmp    0x18(%rcx),%rsi
    4239:	0f 85 29 03 00 00    	jne    4568 <dispose_chunk+0x398>
    423f:	48 3b 70 10          	cmp    0x10(%rax),%rsi
    4243:	0f 85 1f 03 00 00    	jne    4568 <dispose_chunk+0x398>
    4249:	48 89 41 18          	mov    %rax,0x18(%rcx)
    424d:	48 89 48 10          	mov    %rcx,0x10(%rax)
    4251:	48 85 db             	test   %rbx,%rbx
    4254:	0f 84 8a 01 00 00    	je     43e4 <dispose_chunk+0x214>
    425a:	44 8b 4e 38          	mov    0x38(%rsi),%r9d
    425e:	4c 89 c9             	mov    %r9,%rcx
    4261:	4e 8d 0c cf          	lea    (%rdi,%r9,8),%r9
    4265:	49 3b b1 58 02 00 00 	cmp    0x258(%r9),%rsi
    426c:	0f 84 6e 05 00 00    	je     47e0 <dispose_chunk+0x610>
    4272:	4c 39 d3             	cmp    %r10,%rbx
    4275:	0f 82 ed 02 00 00    	jb     4568 <dispose_chunk+0x398>
    427b:	48 3b 73 20          	cmp    0x20(%rbx),%rsi
    427f:	0f 84 c3 05 00 00    	je     4848 <dispose_chunk+0x678>
    4285:	48 89 43 28          	mov    %rax,0x28(%rbx)
    4289:	48 85 c0             	test   %rax,%rax
    428c:	0f 84 52 01 00 00    	je     43e4 <dispose_chunk+0x214>
    4292:	4c 39 d0             	cmp    %r10,%rax
    4295:	0f 82 cd 02 00 00    	jb     4568 <dispose_chunk+0x398>
    429b:	48 8b 4e 20          	mov    0x20(%rsi),%rcx
    429f:	48 89 58 30          	mov    %rbx,0x30(%rax)
    42a3:	48 85 c9             	test   %rcx,%rcx
    42a6:	74 11                	je     42b9 <dispose_chunk+0xe9>
    42a8:	4c 39 d1             	cmp    %r10,%rcx
    42ab:	0f 82 b7 02 00 00    	jb     4568 <dispose_chunk+0x398>
    42b1:	48 89 48 20          	mov    %rcx,0x20(%rax)
    42b5:	48 89 41 30          	mov    %rax,0x30(%rcx)
    42b9:	48 8b 4e 28          	mov    0x28(%rsi),%rcx
    42bd:	48 85 c9             	test   %rcx,%rcx
    42c0:	0f 84 1e 01 00 00    	je     43e4 <dispose_chunk+0x214>
    42c6:	4c 39 d1             	cmp    %r10,%rcx
    42c9:	0f 82 99 02 00 00    	jb     4568 <dispose_chunk+0x398>
    42cf:	48 89 48 28          	mov    %rcx,0x28(%rax)
    42d3:	48 89 41 30          	mov    %rax,0x30(%rcx)
    42d7:	e9 08 01 00 00       	jmpq   43e4 <dispose_chunk+0x214>
    42dc:	0f 1f 40 00          	nopl   0x0(%rax)
    42e0:	48 89 d1             	mov    %rdx,%rcx
    42e3:	48 c1 e9 08          	shr    $0x8,%rcx
    42e7:	85 c9                	test   %ecx,%ecx
    42e9:	0f 84 81 02 00 00    	je     4570 <dispose_chunk+0x3a0>
    42ef:	81 f9 ff ff 00 00    	cmp    $0xffff,%ecx
    42f5:	41 b8 00 00 00 80    	mov    $0x80000000,%r8d
    42fb:	b8 1f 00 00 00       	mov    $0x1f,%eax
    4300:	77 2d                	ja     432f <dispose_chunk+0x15f>
    4302:	44 0f bd c1          	bsr    %ecx,%r8d
    4306:	b9 26 00 00 00       	mov    $0x26,%ecx
    430b:	48 89 d3             	mov    %rdx,%rbx
    430e:	41 83 f0 1f          	xor    $0x1f,%r8d
    4312:	44 29 c1             	sub    %r8d,%ecx
    4315:	44 29 c0             	sub    %r8d,%eax
    4318:	41 b8 01 00 00 00    	mov    $0x1,%r8d
    431e:	48 d3 eb             	shr    %cl,%rbx
    4321:	48 89 d9             	mov    %rbx,%rcx
    4324:	83 e1 01             	and    $0x1,%ecx
    4327:	8d 04 41             	lea    (%rcx,%rax,2),%eax
    432a:	89 c1                	mov    %eax,%ecx
    432c:	41 d3 e0             	shl    %cl,%r8d
    432f:	8b 4f 04             	mov    0x4(%rdi),%ecx
    4332:	89 46 38             	mov    %eax,0x38(%rsi)
    4335:	48 c7 46 28 00 00 00 	movq   $0x0,0x28(%rsi)
    433c:	00 
    433d:	48 c7 46 20 00 00 00 	movq   $0x0,0x20(%rsi)
    4344:	00 
    4345:	41 85 c8             	test   %ecx,%r8d
    4348:	0f 84 da 02 00 00    	je     4628 <dispose_chunk+0x458>
    434e:	89 c1                	mov    %eax,%ecx
    4350:	4c 8b 84 cf 58 02 00 	mov    0x258(%rdi,%rcx,8),%r8
    4357:	00 
    4358:	31 c9                	xor    %ecx,%ecx
    435a:	83 f8 1f             	cmp    $0x1f,%eax
    435d:	74 09                	je     4368 <dispose_chunk+0x198>
    435f:	d1 e8                	shr    %eax
    4361:	b9 39 00 00 00       	mov    $0x39,%ecx
    4366:	29 c1                	sub    %eax,%ecx
    4368:	48 89 d0             	mov    %rdx,%rax
    436b:	48 d3 e0             	shl    %cl,%rax
    436e:	48 89 c1             	mov    %rax,%rcx
    4371:	eb 23                	jmp    4396 <dispose_chunk+0x1c6>
    4373:	0f 1f 44 00 00       	nopl   0x0(%rax,%rax,1)
    4378:	48 89 c8             	mov    %rcx,%rax
    437b:	48 01 c9             	add    %rcx,%rcx
    437e:	48 c1 e8 3f          	shr    $0x3f,%rax
    4382:	48 83 c0 04          	add    $0x4,%rax
    4386:	4d 8b 0c c0          	mov    (%r8,%rax,8),%r9
    438a:	4d 85 c9             	test   %r9,%r9
    438d:	0f 84 bd 02 00 00    	je     4650 <dispose_chunk+0x480>
    4393:	4d 89 c8             	mov    %r9,%r8
    4396:	49 8b 40 08          	mov    0x8(%r8),%rax
    439a:	48 83 e0 f8          	and    $0xfffffffffffffff8,%rax
    439e:	48 39 c2             	cmp    %rax,%rdx
    43a1:	75 d5                	jne    4378 <dispose_chunk+0x1a8>
    43a3:	49 8b 40 10          	mov    0x10(%r8),%rax
    43a7:	48 8b 57 18          	mov    0x18(%rdi),%rdx
    43ab:	48 39 d0             	cmp    %rdx,%rax
    43ae:	0f 82 b4 01 00 00    	jb     4568 <dispose_chunk+0x398>
    43b4:	49 39 d0             	cmp    %rdx,%r8
    43b7:	0f 82 ab 01 00 00    	jb     4568 <dispose_chunk+0x398>
    43bd:	48 89 70 18          	mov    %rsi,0x18(%rax)
    43c1:	49 89 70 10          	mov    %rsi,0x10(%r8)
    43c5:	48 89 46 10          	mov    %rax,0x10(%rsi)
    43c9:	4c 89 46 18          	mov    %r8,0x18(%rsi)
    43cd:	48 c7 46 30 00 00 00 	movq   $0x0,0x30(%rsi)
    43d4:	00 
    43d5:	5b                   	pop    %rbx
    43d6:	c3                   	retq   
    43d7:	66 0f 1f 84 00 00 00 	nopw   0x0(%rax,%rax,1)
    43de:	00 00 
    43e0:	4c 8b 57 18          	mov    0x18(%rdi),%r10
    43e4:	4d 39 d0             	cmp    %r10,%r8
    43e7:	0f 82 7b 01 00 00    	jb     4568 <dispose_chunk+0x398>
    43ed:	49 8b 48 08          	mov    0x8(%r8),%rcx
    43f1:	f6 c1 02             	test   $0x2,%cl
    43f4:	0f 85 fe 00 00 00    	jne    44f8 <dispose_chunk+0x328>
    43fa:	4c 3b 47 28          	cmp    0x28(%rdi),%r8
    43fe:	0f 84 6c 02 00 00    	je     4670 <dispose_chunk+0x4a0>
    4404:	4c 8b 5f 20          	mov    0x20(%rdi),%r11
    4408:	4d 39 d8             	cmp    %r11,%r8
    440b:	0f 84 d7 02 00 00    	je     46e8 <dispose_chunk+0x518>
    4411:	48 83 e1 f8          	and    $0xfffffffffffffff8,%rcx
    4415:	48 01 ca             	add    %rcx,%rdx
    4418:	48 c1 e9 03          	shr    $0x3,%rcx
    441c:	48 83 f9 1f          	cmp    $0x1f,%rcx
    4420:	0f 86 6a 01 00 00    	jbe    4590 <dispose_chunk+0x3c0>
    4426:	49 8b 40 18          	mov    0x18(%r8),%rax
    442a:	49 8b 58 30          	mov    0x30(%r8),%rbx
    442e:	49 39 c0             	cmp    %rax,%r8
    4431:	0f 84 d1 02 00 00    	je     4708 <dispose_chunk+0x538>
    4437:	49 8b 48 10          	mov    0x10(%r8),%rcx
    443b:	49 39 ca             	cmp    %rcx,%r10
    443e:	0f 87 24 01 00 00    	ja     4568 <dispose_chunk+0x398>
    4444:	4c 3b 41 18          	cmp    0x18(%rcx),%r8
    4448:	0f 85 1a 01 00 00    	jne    4568 <dispose_chunk+0x398>
    444e:	4c 3b 40 10          	cmp    0x10(%rax),%r8
    4452:	0f 85 10 01 00 00    	jne    4568 <dispose_chunk+0x398>
    4458:	48 89 41 18          	mov    %rax,0x18(%rcx)
    445c:	48 89 48 10          	mov    %rcx,0x10(%rax)
    4460:	48 85 db             	test   %rbx,%rbx
    4463:	0f 84 6f 02 00 00    	je     46d8 <dispose_chunk+0x508>
    4469:	45 8b 48 38          	mov    0x38(%r8),%r9d
    446d:	4c 89 c9             	mov    %r9,%rcx
    4470:	4e 8d 0c cf          	lea    (%rdi,%r9,8),%r9
    4474:	4d 3b 81 58 02 00 00 	cmp    0x258(%r9),%r8
    447b:	0f 84 46 03 00 00    	je     47c7 <dispose_chunk+0x5f7>
    4481:	48 8b 4f 18          	mov    0x18(%rdi),%rcx
    4485:	48 39 cb             	cmp    %rcx,%rbx
    4488:	0f 82 da 00 00 00    	jb     4568 <dispose_chunk+0x398>
    448e:	4c 3b 43 20          	cmp    0x20(%rbx),%r8
    4492:	0f 84 88 03 00 00    	je     4820 <dispose_chunk+0x650>
    4498:	48 89 43 28          	mov    %rax,0x28(%rbx)
    449c:	48 85 c0             	test   %rax,%rax
    449f:	0f 84 33 02 00 00    	je     46d8 <dispose_chunk+0x508>
    44a5:	48 39 c8             	cmp    %rcx,%rax
    44a8:	0f 82 ba 00 00 00    	jb     4568 <dispose_chunk+0x398>
    44ae:	4d 8b 48 20          	mov    0x20(%r8),%r9
    44b2:	48 89 58 30          	mov    %rbx,0x30(%rax)
    44b6:	4d 85 c9             	test   %r9,%r9
    44b9:	74 11                	je     44cc <dispose_chunk+0x2fc>
    44bb:	49 39 c9             	cmp    %rcx,%r9
    44be:	0f 82 a4 00 00 00    	jb     4568 <dispose_chunk+0x398>
    44c4:	4c 89 48 20          	mov    %r9,0x20(%rax)
    44c8:	49 89 41 30          	mov    %rax,0x30(%r9)
    44cc:	4d 8b 40 28          	mov    0x28(%r8),%r8
    44d0:	4d 85 c0             	test   %r8,%r8
    44d3:	0f 84 ff 01 00 00    	je     46d8 <dispose_chunk+0x508>
    44d9:	49 39 c8             	cmp    %rcx,%r8
    44dc:	0f 82 86 00 00 00    	jb     4568 <dispose_chunk+0x398>
    44e2:	4c 89 40 28          	mov    %r8,0x28(%rax)
    44e6:	4c 8b 5f 20          	mov    0x20(%rdi),%r11
    44ea:	49 89 40 30          	mov    %rax,0x30(%r8)
    44ee:	e9 d0 00 00 00       	jmpq   45c3 <dispose_chunk+0x3f3>
    44f3:	0f 1f 44 00 00       	nopl   0x0(%rax,%rax,1)
    44f8:	48 89 d0             	mov    %rdx,%rax
    44fb:	48 83 e1 fe          	and    $0xfffffffffffffffe,%rcx
    44ff:	48 83 c8 01          	or     $0x1,%rax
    4503:	49 89 48 08          	mov    %rcx,0x8(%r8)
    4507:	48 89 46 08          	mov    %rax,0x8(%rsi)
    450b:	48 89 14 16          	mov    %rdx,(%rsi,%rdx,1)
    450f:	48 89 d1             	mov    %rdx,%rcx
    4512:	48 c1 e9 03          	shr    $0x3,%rcx
    4516:	48 83 f9 1f          	cmp    $0x1f,%rcx
    451a:	0f 87 c0 fd ff ff    	ja     42e0 <dispose_chunk+0x110>
    4520:	8d 04 09             	lea    (%rcx,%rcx,1),%eax
    4523:	44 8b 07             	mov    (%rdi),%r8d
    4526:	48 8d 54 c7 48       	lea    0x48(%rdi,%rax,8),%rdx
    452b:	b8 01 00 00 00       	mov    $0x1,%eax
    4530:	d3 e0                	shl    %cl,%eax
    4532:	41 85 c0             	test   %eax,%r8d
    4535:	74 49                	je     4580 <dispose_chunk+0x3b0>
    4537:	48 8b 42 10          	mov    0x10(%rdx),%rax
    453b:	48 3b 47 18          	cmp    0x18(%rdi),%rax
    453f:	72 27                	jb     4568 <dispose_chunk+0x398>
    4541:	48 89 72 10          	mov    %rsi,0x10(%rdx)
    4545:	48 89 70 18          	mov    %rsi,0x18(%rax)
    4549:	48 89 46 10          	mov    %rax,0x10(%rsi)
    454d:	48 89 56 18          	mov    %rdx,0x18(%rsi)
    4551:	5b                   	pop    %rbx
    4552:	c3                   	retq   
    4553:	49 39 c2             	cmp    %rax,%r10
    4556:	77 10                	ja     4568 <dispose_chunk+0x398>
    4558:	48 3b 70 18          	cmp    0x18(%rax),%rsi
    455c:	0f 84 a0 00 00 00    	je     4602 <dispose_chunk+0x432>
    4562:	66 0f 1f 44 00 00    	nopw   0x0(%rax,%rax,1)
    4568:	e8 3d 2d 01 00       	callq  172aa <abort>
    456d:	0f 1f 00             	nopl   (%rax)
    4570:	41 b8 01 00 00 00    	mov    $0x1,%r8d
    4576:	31 c0                	xor    %eax,%eax
    4578:	e9 b2 fd ff ff       	jmpq   432f <dispose_chunk+0x15f>
    457d:	0f 1f 00             	nopl   (%rax)
    4580:	44 09 c0             	or     %r8d,%eax
    4583:	89 07                	mov    %eax,(%rdi)
    4585:	48 89 d0             	mov    %rdx,%rax
    4588:	eb b7                	jmp    4541 <dispose_chunk+0x371>
    458a:	66 0f 1f 44 00 00    	nopw   0x0(%rax,%rax,1)
    4590:	8d 1c 09             	lea    (%rcx,%rcx,1),%ebx
    4593:	49 8b 40 10          	mov    0x10(%r8),%rax
    4597:	4d 8b 48 18          	mov    0x18(%r8),%r9
    459b:	48 8d 5c df 48       	lea    0x48(%rdi,%rbx,8),%rbx
    45a0:	48 39 d8             	cmp    %rbx,%rax
    45a3:	0f 85 56 02 00 00    	jne    47ff <dispose_chunk+0x62f>
    45a9:	4c 39 c8             	cmp    %r9,%rax
    45ac:	0f 84 a6 01 00 00    	je     4758 <dispose_chunk+0x588>
    45b2:	49 39 d9             	cmp    %rbx,%r9
    45b5:	0f 85 6e 02 00 00    	jne    4829 <dispose_chunk+0x659>
    45bb:	4c 89 48 18          	mov    %r9,0x18(%rax)
    45bf:	49 89 41 10          	mov    %rax,0x10(%r9)
    45c3:	48 89 d0             	mov    %rdx,%rax
    45c6:	48 83 c8 01          	or     $0x1,%rax
    45ca:	4c 39 de             	cmp    %r11,%rsi
    45cd:	48 89 46 08          	mov    %rax,0x8(%rsi)
    45d1:	48 89 14 16          	mov    %rdx,(%rsi,%rdx,1)
    45d5:	0f 85 34 ff ff ff    	jne    450f <dispose_chunk+0x33f>
    45db:	48 89 57 08          	mov    %rdx,0x8(%rdi)
    45df:	5b                   	pop    %rbx
    45e0:	c3                   	retq   
    45e1:	0f 1f 80 00 00 00 00 	nopl   0x0(%rax)
    45e8:	44 8d 1c 09          	lea    (%rcx,%rcx,1),%r11d
    45ec:	48 8b 46 10          	mov    0x10(%rsi),%rax
    45f0:	4c 8b 4e 18          	mov    0x18(%rsi),%r9
    45f4:	4e 8d 5c df 48       	lea    0x48(%rdi,%r11,8),%r11
    45f9:	4c 39 d8             	cmp    %r11,%rax
    45fc:	0f 85 51 ff ff ff    	jne    4553 <dispose_chunk+0x383>
    4602:	4c 39 c8             	cmp    %r9,%rax
    4605:	0f 84 ae 01 00 00    	je     47b9 <dispose_chunk+0x5e9>
    460b:	4d 39 d9             	cmp    %r11,%r9
    460e:	0f 85 3d 02 00 00    	jne    4851 <dispose_chunk+0x681>
    4614:	4c 89 48 18          	mov    %r9,0x18(%rax)
    4618:	49 89 41 10          	mov    %rax,0x10(%r9)
    461c:	e9 c3 fd ff ff       	jmpq   43e4 <dispose_chunk+0x214>
    4621:	0f 1f 80 00 00 00 00 	nopl   0x0(%rax)
    4628:	48 83 c0 4a          	add    $0x4a,%rax
    462c:	44 09 c1             	or     %r8d,%ecx
    462f:	89 4f 04             	mov    %ecx,0x4(%rdi)
    4632:	48 89 74 c7 08       	mov    %rsi,0x8(%rdi,%rax,8)
    4637:	48 8d 44 c7 08       	lea    0x8(%rdi,%rax,8),%rax
    463c:	48 89 76 18          	mov    %rsi,0x18(%rsi)
    4640:	48 89 76 10          	mov    %rsi,0x10(%rsi)
    4644:	48 89 46 30          	mov    %rax,0x30(%rsi)
    4648:	5b                   	pop    %rbx
    4649:	c3                   	retq   
    464a:	66 0f 1f 44 00 00    	nopw   0x0(%rax,%rax,1)
    4650:	49 8d 14 c0          	lea    (%r8,%rax,8),%rdx
    4654:	48 39 57 18          	cmp    %rdx,0x18(%rdi)
    4658:	0f 87 0a ff ff ff    	ja     4568 <dispose_chunk+0x398>
    465e:	49 89 34 c0          	mov    %rsi,(%r8,%rax,8)
    4662:	4c 89 46 30          	mov    %r8,0x30(%rsi)
    4666:	48 89 76 18          	mov    %rsi,0x18(%rsi)
    466a:	48 89 76 10          	mov    %rsi,0x10(%rsi)
    466e:	5b                   	pop    %rbx
    466f:	c3                   	retq   
    4670:	48 03 57 10          	add    0x10(%rdi),%rdx
    4674:	48 89 77 28          	mov    %rsi,0x28(%rdi)
    4678:	48 89 57 10          	mov    %rdx,0x10(%rdi)
    467c:	48 83 ca 01          	or     $0x1,%rdx
    4680:	48 3b 77 20          	cmp    0x20(%rdi),%rsi
    4684:	48 89 56 08          	mov    %rdx,0x8(%rsi)
    4688:	0f 85 47 fd ff ff    	jne    43d5 <dispose_chunk+0x205>
    468e:	48 c7 47 20 00 00 00 	movq   $0x0,0x20(%rdi)
    4695:	00 
    4696:	48 c7 47 08 00 00 00 	movq   $0x0,0x8(%rdi)
    469d:	00 
    469e:	5b                   	pop    %rbx
    469f:	c3                   	retq   
    46a0:	49 8b 40 08          	mov    0x8(%r8),%rax
    46a4:	48 89 c1             	mov    %rax,%rcx
    46a7:	83 e1 03             	and    $0x3,%ecx
    46aa:	48 83 f9 03          	cmp    $0x3,%rcx
    46ae:	0f 85 30 fd ff ff    	jne    43e4 <dispose_chunk+0x214>
    46b4:	48 83 e0 fe          	and    $0xfffffffffffffffe,%rax
    46b8:	48 89 57 08          	mov    %rdx,0x8(%rdi)
    46bc:	49 89 40 08          	mov    %rax,0x8(%r8)
    46c0:	48 89 d0             	mov    %rdx,%rax
    46c3:	48 83 c8 01          	or     $0x1,%rax
    46c7:	48 89 46 08          	mov    %rax,0x8(%rsi)
    46cb:	48 89 14 16          	mov    %rdx,(%rsi,%rdx,1)
    46cf:	5b                   	pop    %rbx
    46d0:	c3                   	retq   
    46d1:	0f 1f 80 00 00 00 00 	nopl   0x0(%rax)
    46d8:	4c 8b 5f 20          	mov    0x20(%rdi),%r11
    46dc:	e9 e2 fe ff ff       	jmpq   45c3 <dispose_chunk+0x3f3>
    46e1:	0f 1f 80 00 00 00 00 	nopl   0x0(%rax)
    46e8:	48 03 57 08          	add    0x8(%rdi),%rdx
    46ec:	48 89 77 20          	mov    %rsi,0x20(%rdi)
    46f0:	5b                   	pop    %rbx
    46f1:	48 89 d0             	mov    %rdx,%rax
    46f4:	48 89 57 08          	mov    %rdx,0x8(%rdi)
    46f8:	48 83 c8 01          	or     $0x1,%rax
    46fc:	48 89 46 08          	mov    %rax,0x8(%rsi)
    4700:	48 89 14 16          	mov    %rdx,(%rsi,%rdx,1)
    4704:	c3                   	retq   
    4705:	0f 1f 00             	nopl   (%rax)
    4708:	49 8b 48 28          	mov    0x28(%r8),%rcx
    470c:	4d 8d 48 28          	lea    0x28(%r8),%r9
    4710:	48 85 c9             	test   %rcx,%rcx
    4713:	0f 84 50 01 00 00    	je     4869 <dispose_chunk+0x699>
    4719:	0f 1f 80 00 00 00 00 	nopl   0x0(%rax)
    4720:	4d 89 cb             	mov    %r9,%r11
    4723:	48 89 c8             	mov    %rcx,%rax
    4726:	4c 8d 49 28          	lea    0x28(%rcx),%r9
    472a:	48 8b 49 28          	mov    0x28(%rcx),%rcx
    472e:	48 85 c9             	test   %rcx,%rcx
    4731:	75 ed                	jne    4720 <dispose_chunk+0x550>
    4733:	48 8b 48 20          	mov    0x20(%rax),%rcx
    4737:	4c 8d 48 20          	lea    0x20(%rax),%r9
    473b:	48 85 c9             	test   %rcx,%rcx
    473e:	75 e0                	jne    4720 <dispose_chunk+0x550>
    4740:	4d 39 d3             	cmp    %r10,%r11
    4743:	0f 82 1f fe ff ff    	jb     4568 <dispose_chunk+0x398>
    4749:	49 c7 03 00 00 00 00 	movq   $0x0,(%r11)
    4750:	e9 0b fd ff ff       	jmpq   4460 <dispose_chunk+0x290>
    4755:	0f 1f 00             	nopl   (%rax)
    4758:	b8 fe ff ff ff       	mov    $0xfffffffe,%eax
    475d:	d3 c0                	rol    %cl,%eax
    475f:	21 07                	and    %eax,(%rdi)
    4761:	e9 5d fe ff ff       	jmpq   45c3 <dispose_chunk+0x3f3>
    4766:	48 8b 4e 28          	mov    0x28(%rsi),%rcx
    476a:	4c 8d 4e 28          	lea    0x28(%rsi),%r9
    476e:	48 85 c9             	test   %rcx,%rcx
    4771:	0f 84 0a 01 00 00    	je     4881 <dispose_chunk+0x6b1>
    4777:	66 0f 1f 84 00 00 00 	nopw   0x0(%rax,%rax,1)
    477e:	00 00 
    4780:	4d 89 cb             	mov    %r9,%r11
    4783:	48 89 c8             	mov    %rcx,%rax
    4786:	4c 8d 49 28          	lea    0x28(%rcx),%r9
    478a:	48 8b 49 28          	mov    0x28(%rcx),%rcx
    478e:	48 85 c9             	test   %rcx,%rcx
    4791:	75 ed                	jne    4780 <dispose_chunk+0x5b0>
    4793:	48 8b 48 20          	mov    0x20(%rax),%rcx
    4797:	4c 8d 48 20          	lea    0x20(%rax),%r9
    479b:	48 85 c9             	test   %rcx,%rcx
    479e:	75 e0                	jne    4780 <dispose_chunk+0x5b0>
    47a0:	4d 39 d3             	cmp    %r10,%r11
    47a3:	0f 82 bf fd ff ff    	jb     4568 <dispose_chunk+0x398>
    47a9:	49 c7 03 00 00 00 00 	movq   $0x0,(%r11)
    47b0:	4c 8b 57 18          	mov    0x18(%rdi),%r10
    47b4:	e9 98 fa ff ff       	jmpq   4251 <dispose_chunk+0x81>
    47b9:	b8 fe ff ff ff       	mov    $0xfffffffe,%eax
    47be:	d3 c0                	rol    %cl,%eax
    47c0:	21 07                	and    %eax,(%rdi)
    47c2:	e9 1d fc ff ff       	jmpq   43e4 <dispose_chunk+0x214>
    47c7:	48 85 c0             	test   %rax,%rax
    47ca:	49 89 81 58 02 00 00 	mov    %rax,0x258(%r9)
    47d1:	0f 84 c2 00 00 00    	je     4899 <dispose_chunk+0x6c9>
    47d7:	48 8b 4f 18          	mov    0x18(%rdi),%rcx
    47db:	e9 c5 fc ff ff       	jmpq   44a5 <dispose_chunk+0x2d5>
    47e0:	48 85 c0             	test   %rax,%rax
    47e3:	49 89 81 58 02 00 00 	mov    %rax,0x258(%r9)
    47ea:	0f 85 a2 fa ff ff    	jne    4292 <dispose_chunk+0xc2>
    47f0:	b8 fe ff ff ff       	mov    $0xfffffffe,%eax
    47f5:	d3 c0                	rol    %cl,%eax
    47f7:	21 47 04             	and    %eax,0x4(%rdi)
    47fa:	e9 e5 fb ff ff       	jmpq   43e4 <dispose_chunk+0x214>
    47ff:	49 39 c2             	cmp    %rax,%r10
    4802:	0f 87 60 fd ff ff    	ja     4568 <dispose_chunk+0x398>
    4808:	4c 3b 40 18          	cmp    0x18(%rax),%r8
    480c:	0f 84 97 fd ff ff    	je     45a9 <dispose_chunk+0x3d9>
    4812:	e9 51 fd ff ff       	jmpq   4568 <dispose_chunk+0x398>
    4817:	66 0f 1f 84 00 00 00 	nopw   0x0(%rax,%rax,1)
    481e:	00 00 
    4820:	48 89 43 20          	mov    %rax,0x20(%rbx)
    4824:	e9 73 fc ff ff       	jmpq   449c <dispose_chunk+0x2cc>
    4829:	4d 39 ca             	cmp    %r9,%r10
    482c:	0f 87 36 fd ff ff    	ja     4568 <dispose_chunk+0x398>
    4832:	4d 3b 41 10          	cmp    0x10(%r9),%r8
    4836:	0f 84 7f fd ff ff    	je     45bb <dispose_chunk+0x3eb>
    483c:	e9 27 fd ff ff       	jmpq   4568 <dispose_chunk+0x398>
    4841:	0f 1f 80 00 00 00 00 	nopl   0x0(%rax)
    4848:	48 89 43 20          	mov    %rax,0x20(%rbx)
    484c:	e9 38 fa ff ff       	jmpq   4289 <dispose_chunk+0xb9>
    4851:	4d 39 ca             	cmp    %r9,%r10
    4854:	0f 87 0e fd ff ff    	ja     4568 <dispose_chunk+0x398>
    485a:	49 3b 71 10          	cmp    0x10(%r9),%rsi
    485e:	0f 84 b0 fd ff ff    	je     4614 <dispose_chunk+0x444>
    4864:	e9 ff fc ff ff       	jmpq   4568 <dispose_chunk+0x398>
    4869:	49 8b 48 20          	mov    0x20(%r8),%rcx
    486d:	4d 8d 48 20          	lea    0x20(%r8),%r9
    4871:	48 85 c9             	test   %rcx,%rcx
    4874:	0f 85 a6 fe ff ff    	jne    4720 <dispose_chunk+0x550>
    487a:	31 c0                	xor    %eax,%eax
    487c:	e9 df fb ff ff       	jmpq   4460 <dispose_chunk+0x290>
    4881:	48 8b 4e 20          	mov    0x20(%rsi),%rcx
    4885:	4c 8d 4e 20          	lea    0x20(%rsi),%r9
    4889:	48 85 c9             	test   %rcx,%rcx
    488c:	0f 85 ee fe ff ff    	jne    4780 <dispose_chunk+0x5b0>
    4892:	31 c0                	xor    %eax,%eax
    4894:	e9 b8 f9 ff ff       	jmpq   4251 <dispose_chunk+0x81>
    4899:	b8 fe ff ff ff       	mov    $0xfffffffe,%eax
    489e:	4c 8b 5f 20          	mov    0x20(%rdi),%r11
    48a2:	d3 c0                	rol    %cl,%eax
    48a4:	21 47 04             	and    %eax,0x4(%rdi)
    48a7:	e9 17 fd ff ff       	jmpq   45c3 <dispose_chunk+0x3f3>
    48ac:	0f 1f 40 00          	nopl   0x0(%rax)

00000000000048b0 <dlmalloc>:
    48b0:	41 57                	push   %r15
    48b2:	41 56                	push   %r14
    48b4:	41 55                	push   %r13
    48b6:	41 54                	push   %r12
    48b8:	55                   	push   %rbp
    48b9:	53                   	push   %rbx
    48ba:	48 89 fd             	mov    %rdi,%rbp
    48bd:	48 83 ec 18          	sub    $0x18,%rsp
    48c1:	48 83 3d 77 74 21 00 	cmpq   $0x0,0x217477(%rip)        # 21bd40 <mparams>
    48c8:	00 
    48c9:	0f 84 61 02 00 00    	je     4b30 <dlmalloc+0x280>
    48cf:	f6 05 1a 74 21 00 02 	testb  $0x2,0x21741a(%rip)        # 21bcf0 <_gm_+0x370>
    48d6:	0f 85 14 02 00 00    	jne    4af0 <dlmalloc+0x240>
    48dc:	48 81 fd e8 00 00 00 	cmp    $0xe8,%rbp
    48e3:	0f 87 a7 00 00 00    	ja     4990 <dlmalloc+0xe0>
    48e9:	48 83 fd 0e          	cmp    $0xe,%rbp
    48ed:	0f 87 dd 01 00 00    	ja     4ad0 <dlmalloc+0x220>
    48f3:	b9 04 00 00 00       	mov    $0x4,%ecx
    48f8:	41 bc 20 00 00 00    	mov    $0x20,%r12d
    48fe:	8b 15 7c 70 21 00    	mov    0x21707c(%rip),%edx        # 21b980 <_gm_>
    4904:	48 8d 35 75 70 21 00 	lea    0x217075(%rip),%rsi        # 21b980 <_gm_>
    490b:	89 d0                	mov    %edx,%eax
    490d:	d3 e8                	shr    %cl,%eax
    490f:	a8 03                	test   $0x3,%al
    4911:	0f 84 29 02 00 00    	je     4b40 <dlmalloc+0x290>
    4917:	83 e0 01             	and    $0x1,%eax
    491a:	83 f0 01             	xor    $0x1,%eax
    491d:	01 c1                	add    %eax,%ecx
    491f:	8d 04 09             	lea    (%rcx,%rcx,1),%eax
    4922:	4c 8d 44 c6 48       	lea    0x48(%rsi,%rax,8),%r8
    4927:	49 8b 40 10          	mov    0x10(%r8),%rax
    492b:	48 8b 78 10          	mov    0x10(%rax),%rdi
    492f:	49 39 f8             	cmp    %rdi,%r8
    4932:	0f 84 bb 08 00 00    	je     51f3 <dlmalloc+0x943>
    4938:	48 3b 3d 59 70 21 00 	cmp    0x217059(%rip),%rdi        # 21b998 <_gm_+0x18>
    493f:	0f 82 ab 06 00 00    	jb     4ff0 <dlmalloc+0x740>
    4945:	48 3b 47 18          	cmp    0x18(%rdi),%rax
    4949:	0f 85 a1 06 00 00    	jne    4ff0 <dlmalloc+0x740>
    494f:	4c 89 47 18          	mov    %r8,0x18(%rdi)
    4953:	49 89 78 10          	mov    %rdi,0x10(%r8)
    4957:	c1 e1 03             	shl    $0x3,%ecx
    495a:	48 33 35 df 73 21 00 	xor    0x2173df(%rip),%rsi        # 21bd40 <mparams>
    4961:	89 ca                	mov    %ecx,%edx
    4963:	83 ca 03             	or     $0x3,%edx
    4966:	89 d3                	mov    %edx,%ebx
    4968:	48 8d 14 08          	lea    (%rax,%rcx,1),%rdx
    496c:	48 89 58 08          	mov    %rbx,0x8(%rax)
    4970:	48 8d 58 10          	lea    0x10(%rax),%rbx
    4974:	48 83 4a 08 01       	orq    $0x1,0x8(%rdx)
    4979:	48 89 32             	mov    %rsi,(%rdx)
    497c:	48 85 db             	test   %rbx,%rbx
    497f:	0f 85 f4 00 00 00    	jne    4a79 <dlmalloc+0x1c9>
    4985:	31 db                	xor    %ebx,%ebx
    4987:	e9 1d 01 00 00       	jmpq   4aa9 <dlmalloc+0x1f9>
    498c:	0f 1f 40 00          	nopl   0x0(%rax)
    4990:	48 81 fd 7f ff ff ff 	cmp    $0xffffffffffffff7f,%rbp
    4997:	76 57                	jbe    49f0 <dlmalloc+0x140>
    4999:	48 8b 15 e8 6f 21 00 	mov    0x216fe8(%rip),%rdx        # 21b988 <_gm_+0x8>
    49a0:	48 83 fa ff          	cmp    $0xffffffffffffffff,%rdx
    49a4:	0f 85 89 02 00 00    	jne    4c33 <dlmalloc+0x383>
    49aa:	48 8b 05 ef 6f 21 00 	mov    0x216fef(%rip),%rax        # 21b9a0 <_gm_+0x20>
    49b1:	48 8d 35 c8 6f 21 00 	lea    0x216fc8(%rip),%rsi        # 21b980 <_gm_>
    49b8:	49 89 d1             	mov    %rdx,%r9
    49bb:	48 33 35 7e 73 21 00 	xor    0x21737e(%rip),%rsi        # 21bd40 <mparams>
    49c2:	49 01 c1             	add    %rax,%r9
    49c5:	48 c7 05 b8 6f 21 00 	movq   $0x0,0x216fb8(%rip)        # 21b988 <_gm_+0x8>
    49cc:	00 00 00 00 
    49d0:	48 c7 05 c5 6f 21 00 	movq   $0x0,0x216fc5(%rip)        # 21b9a0 <_gm_+0x20>
    49d7:	00 00 00 00 
    49db:	48 89 50 08          	mov    %rdx,0x8(%rax)
    49df:	49 83 49 08 01       	orq    $0x1,0x8(%r9)
    49e4:	49 89 31             	mov    %rsi,(%r9)
    49e7:	e9 80 00 00 00       	jmpq   4a6c <dlmalloc+0x1bc>
    49ec:	0f 1f 40 00          	nopl   0x0(%rax)
    49f0:	44 8b 05 8d 6f 21 00 	mov    0x216f8d(%rip),%r8d        # 21b984 <_gm_+0x4>
    49f7:	4c 8d 65 17          	lea    0x17(%rbp),%r12
    49fb:	48 8d 35 7e 6f 21 00 	lea    0x216f7e(%rip),%rsi        # 21b980 <_gm_>
    4a02:	49 83 e4 f8          	and    $0xfffffffffffffff8,%r12
    4a06:	45 85 c0             	test   %r8d,%r8d
    4a09:	0f 85 60 03 00 00    	jne    4d6f <dlmalloc+0x4bf>
    4a0f:	4c 8b 0d 72 6f 21 00 	mov    0x216f72(%rip),%r9        # 21b988 <_gm_+0x8>
    4a16:	4d 39 cc             	cmp    %r9,%r12
    4a19:	0f 86 d7 01 00 00    	jbe    4bf6 <dlmalloc+0x346>
    4a1f:	48 8b 15 6a 6f 21 00 	mov    0x216f6a(%rip),%rdx        # 21b990 <_gm_+0x10>
    4a26:	4c 39 e2             	cmp    %r12,%rdx
    4a29:	0f 86 f6 17 00 00    	jbe    6225 <dlmalloc+0x1975>
    4a2f:	4c 29 e2             	sub    %r12,%rdx
    4a32:	48 8b 05 6f 6f 21 00 	mov    0x216f6f(%rip),%rax        # 21b9a8 <_gm_+0x28>
    4a39:	48 89 15 50 6f 21 00 	mov    %rdx,0x216f50(%rip)        # 21b990 <_gm_+0x10>
    4a40:	48 83 ca 01          	or     $0x1,%rdx
    4a44:	4a 8d 0c 20          	lea    (%rax,%r12,1),%rcx
    4a48:	48 89 0d 59 6f 21 00 	mov    %rcx,0x216f59(%rip)        # 21b9a8 <_gm_+0x28>
    4a4f:	48 89 51 08          	mov    %rdx,0x8(%rcx)
    4a53:	49 83 cc 03          	or     $0x3,%r12
    4a57:	48 8d 15 22 6f 21 00 	lea    0x216f22(%rip),%rdx        # 21b980 <_gm_>
    4a5e:	4c 89 60 08          	mov    %r12,0x8(%rax)
    4a62:	48 33 15 d7 72 21 00 	xor    0x2172d7(%rip),%rdx        # 21bd40 <mparams>
    4a69:	48 89 11             	mov    %rdx,(%rcx)
    4a6c:	48 8d 58 10          	lea    0x10(%rax),%rbx
    4a70:	48 85 db             	test   %rbx,%rbx
    4a73:	0f 84 0c ff ff ff    	je     4985 <dlmalloc+0xd5>
    4a79:	e8 42 e1 ff ff       	callq  2bc0 <get_heap_base>
    4a7e:	48 39 d8             	cmp    %rbx,%rax
    4a81:	0f 87 69 05 00 00    	ja     4ff0 <dlmalloc+0x740>
    4a87:	48 89 d8             	mov    %rbx,%rax
    4a8a:	48 f7 d0             	not    %rax
    4a8d:	48 39 c5             	cmp    %rax,%rbp
    4a90:	0f 87 5a 05 00 00    	ja     4ff0 <dlmalloc+0x740>
    4a96:	31 ff                	xor    %edi,%edi
    4a98:	48 01 dd             	add    %rbx,%rbp
    4a9b:	e8 d0 2d 00 00       	callq  7870 <sbrk>
    4aa0:	48 39 e8             	cmp    %rbp,%rax
    4aa3:	0f 82 47 05 00 00    	jb     4ff0 <dlmalloc+0x740>
    4aa9:	f6 05 40 72 21 00 02 	testb  $0x2,0x217240(%rip)        # 21bcf0 <_gm_+0x370>
    4ab0:	74 0a                	je     4abc <dlmalloc+0x20c>
    4ab2:	c7 05 38 72 21 00 00 	movl   $0x0,0x217238(%rip)        # 21bcf4 <_gm_+0x374>
    4ab9:	00 00 00 
    4abc:	48 83 c4 18          	add    $0x18,%rsp
    4ac0:	48 89 d8             	mov    %rbx,%rax
    4ac3:	5b                   	pop    %rbx
    4ac4:	5d                   	pop    %rbp
    4ac5:	41 5c                	pop    %r12
    4ac7:	41 5d                	pop    %r13
    4ac9:	41 5e                	pop    %r14
    4acb:	41 5f                	pop    %r15
    4acd:	c3                   	retq   
    4ace:	66 90                	xchg   %ax,%ax
    4ad0:	4c 8d 65 17          	lea    0x17(%rbp),%r12
    4ad4:	49 83 e4 f8          	and    $0xfffffffffffffff8,%r12
    4ad8:	4c 89 e0             	mov    %r12,%rax
    4adb:	48 c1 e8 03          	shr    $0x3,%rax
    4adf:	48 89 c1             	mov    %rax,%rcx
    4ae2:	e9 17 fe ff ff       	jmpq   48fe <dlmalloc+0x4e>
    4ae7:	66 0f 1f 84 00 00 00 	nopw   0x0(%rax,%rax,1)
    4aee:	00 00 
    4af0:	b8 01 00 00 00       	mov    $0x1,%eax
    4af5:	87 05 f9 71 21 00    	xchg   %eax,0x2171f9(%rip)        # 21bcf4 <_gm_+0x374>
    4afb:	85 c0                	test   %eax,%eax
    4afd:	0f 84 d9 fd ff ff    	je     48dc <dlmalloc+0x2c>
    4b03:	ba 01 00 00 00       	mov    $0x1,%edx
    4b08:	0f 1f 84 00 00 00 00 	nopl   0x0(%rax,%rax,1)
    4b0f:	00 
    4b10:	8b 05 de 71 21 00    	mov    0x2171de(%rip),%eax        # 21bcf4 <_gm_+0x374>
    4b16:	85 c0                	test   %eax,%eax
    4b18:	75 f6                	jne    4b10 <dlmalloc+0x260>
    4b1a:	89 d0                	mov    %edx,%eax
    4b1c:	87 05 d2 71 21 00    	xchg   %eax,0x2171d2(%rip)        # 21bcf4 <_gm_+0x374>
    4b22:	85 c0                	test   %eax,%eax
    4b24:	75 ea                	jne    4b10 <dlmalloc+0x260>
    4b26:	e9 b1 fd ff ff       	jmpq   48dc <dlmalloc+0x2c>
    4b2b:	0f 1f 44 00 00       	nopl   0x0(%rax,%rax,1)
    4b30:	e8 9b f5 ff ff       	callq  40d0 <init_mparams>
    4b35:	e9 95 fd ff ff       	jmpq   48cf <dlmalloc+0x1f>
    4b3a:	66 0f 1f 44 00 00    	nopw   0x0(%rax,%rax,1)
    4b40:	48 8b 3d 41 6e 21 00 	mov    0x216e41(%rip),%rdi        # 21b988 <_gm_+0x8>
    4b47:	49 39 fc             	cmp    %rdi,%r12
    4b4a:	49 89 f9             	mov    %rdi,%r9
    4b4d:	0f 86 a3 00 00 00    	jbe    4bf6 <dlmalloc+0x346>
    4b53:	85 c0                	test   %eax,%eax
    4b55:	0f 84 9a 04 00 00    	je     4ff5 <dlmalloc+0x745>
    4b5b:	41 b9 01 00 00 00    	mov    $0x1,%r9d
    4b61:	d3 e0                	shl    %cl,%eax
    4b63:	45 89 c8             	mov    %r9d,%r8d
    4b66:	41 d3 e0             	shl    %cl,%r8d
    4b69:	45 01 c0             	add    %r8d,%r8d
    4b6c:	45 89 c2             	mov    %r8d,%r10d
    4b6f:	41 f7 da             	neg    %r10d
    4b72:	45 09 d0             	or     %r10d,%r8d
    4b75:	44 21 c0             	and    %r8d,%eax
    4b78:	89 c1                	mov    %eax,%ecx
    4b7a:	f7 d9                	neg    %ecx
    4b7c:	21 c8                	and    %ecx,%eax
    4b7e:	31 c9                	xor    %ecx,%ecx
    4b80:	f3 0f bc c8          	tzcnt  %eax,%ecx
    4b84:	8d 04 09             	lea    (%rcx,%rcx,1),%eax
    4b87:	4c 8d 54 c6 48       	lea    0x48(%rsi,%rax,8),%r10
    4b8c:	49 8b 42 10          	mov    0x10(%r10),%rax
    4b90:	4c 8b 40 10          	mov    0x10(%rax),%r8
    4b94:	4d 39 c2             	cmp    %r8,%r10
    4b97:	0f 84 d3 07 00 00    	je     5370 <dlmalloc+0xac0>
    4b9d:	4c 3b 05 f4 6d 21 00 	cmp    0x216df4(%rip),%r8        # 21b998 <_gm_+0x18>
    4ba4:	0f 82 46 04 00 00    	jb     4ff0 <dlmalloc+0x740>
    4baa:	49 3b 40 18          	cmp    0x18(%r8),%rax
    4bae:	0f 85 3c 04 00 00    	jne    4ff0 <dlmalloc+0x740>
    4bb4:	4d 89 50 18          	mov    %r10,0x18(%r8)
    4bb8:	4d 89 42 10          	mov    %r8,0x10(%r10)
    4bbc:	8d 14 cd 00 00 00 00 	lea    0x0(,%rcx,8),%edx
    4bc3:	49 89 d0             	mov    %rdx,%r8
    4bc6:	48 89 d1             	mov    %rdx,%rcx
    4bc9:	4d 29 e0             	sub    %r12,%r8
    4bcc:	49 83 f8 1f          	cmp    $0x1f,%r8
    4bd0:	0f 87 31 06 00 00    	ja     5207 <dlmalloc+0x957>
    4bd6:	48 33 35 63 71 21 00 	xor    0x217163(%rip),%rsi        # 21bd40 <mparams>
    4bdd:	83 c9 03             	or     $0x3,%ecx
    4be0:	48 01 c2             	add    %rax,%rdx
    4be3:	89 cb                	mov    %ecx,%ebx
    4be5:	48 89 58 08          	mov    %rbx,0x8(%rax)
    4be9:	48 83 4a 08 01       	orq    $0x1,0x8(%rdx)
    4bee:	48 89 32             	mov    %rsi,(%rdx)
    4bf1:	e9 76 fe ff ff       	jmpq   4a6c <dlmalloc+0x1bc>
    4bf6:	4c 89 ca             	mov    %r9,%rdx
    4bf9:	48 8b 05 a0 6d 21 00 	mov    0x216da0(%rip),%rax        # 21b9a0 <_gm_+0x20>
    4c00:	4c 29 e2             	sub    %r12,%rdx
    4c03:	48 83 fa 1f          	cmp    $0x1f,%rdx
    4c07:	0f 86 2b 16 00 00    	jbe    6238 <dlmalloc+0x1988>
    4c0d:	4a 8d 0c 20          	lea    (%rax,%r12,1),%rcx
    4c11:	48 89 d6             	mov    %rdx,%rsi
    4c14:	48 89 15 6d 6d 21 00 	mov    %rdx,0x216d6d(%rip)        # 21b988 <_gm_+0x8>
    4c1b:	48 83 ce 01          	or     $0x1,%rsi
    4c1f:	48 89 0d 7a 6d 21 00 	mov    %rcx,0x216d7a(%rip)        # 21b9a0 <_gm_+0x20>
    4c26:	48 89 71 08          	mov    %rsi,0x8(%rcx)
    4c2a:	48 89 14 11          	mov    %rdx,(%rcx,%rdx,1)
    4c2e:	e9 20 fe ff ff       	jmpq   4a53 <dlmalloc+0x1a3>
    4c33:	48 83 3d 05 71 21 00 	cmpq   $0x0,0x217105(%rip)        # 21bd40 <mparams>
    4c3a:	00 
    4c3b:	49 c7 c4 ff ff ff ff 	mov    $0xffffffffffffffff,%r12
    4c42:	0f 85 3d fd ff ff    	jne    4985 <dlmalloc+0xd5>
    4c48:	e8 83 f4 ff ff       	callq  40d0 <init_mparams>
    4c4d:	48 8b 05 fc 70 21 00 	mov    0x2170fc(%rip),%rax        # 21bd50 <mparams+0x10>
    4c54:	4d 8d 74 04 57       	lea    0x57(%r12,%rax,1),%r14
    4c59:	48 f7 d8             	neg    %rax
    4c5c:	49 21 c6             	and    %rax,%r14
    4c5f:	4d 39 e6             	cmp    %r12,%r14
    4c62:	0f 86 1d fd ff ff    	jbe    4985 <dlmalloc+0xd5>
    4c68:	48 8b 05 79 70 21 00 	mov    0x217079(%rip),%rax        # 21bce8 <_gm_+0x368>
    4c6f:	48 85 c0             	test   %rax,%rax
    4c72:	74 1d                	je     4c91 <dlmalloc+0x3e1>
    4c74:	48 8b 0d 5d 70 21 00 	mov    0x21705d(%rip),%rcx        # 21bcd8 <_gm_+0x358>
    4c7b:	49 8d 14 0e          	lea    (%r14,%rcx,1),%rdx
    4c7f:	48 39 d0             	cmp    %rdx,%rax
    4c82:	0f 82 fd fc ff ff    	jb     4985 <dlmalloc+0xd5>
    4c88:	48 39 d1             	cmp    %rdx,%rcx
    4c8b:	0f 83 f4 fc ff ff    	jae    4985 <dlmalloc+0xd5>
    4c91:	f6 05 58 70 21 00 04 	testb  $0x4,0x217058(%rip)        # 21bcf0 <_gm_+0x370>
    4c98:	0f 85 ac 00 00 00    	jne    4d4a <dlmalloc+0x49a>
    4c9e:	48 8b 15 03 6d 21 00 	mov    0x216d03(%rip),%rdx        # 21b9a8 <_gm_+0x28>
    4ca5:	48 85 d2             	test   %rdx,%rdx
    4ca8:	74 2c                	je     4cd6 <dlmalloc+0x426>
    4caa:	48 8d 1d 47 70 21 00 	lea    0x217047(%rip),%rbx        # 21bcf8 <_gm_+0x378>
    4cb1:	0f 1f 80 00 00 00 00 	nopl   0x0(%rax)
    4cb8:	48 8b 03             	mov    (%rbx),%rax
    4cbb:	48 39 c2             	cmp    %rax,%rdx
    4cbe:	72 0d                	jb     4ccd <dlmalloc+0x41d>
    4cc0:	48 03 43 08          	add    0x8(%rbx),%rax
    4cc4:	48 39 c2             	cmp    %rax,%rdx
    4cc7:	0f 82 83 06 00 00    	jb     5350 <dlmalloc+0xaa0>
    4ccd:	48 8b 5b 10          	mov    0x10(%rbx),%rbx
    4cd1:	48 85 db             	test   %rbx,%rbx
    4cd4:	75 e2                	jne    4cb8 <dlmalloc+0x408>
    4cd6:	b8 01 00 00 00       	mov    $0x1,%eax
    4cdb:	87 05 8f 70 21 00    	xchg   %eax,0x21708f(%rip)        # 21bd70 <malloc_global_mutex>
    4ce1:	31 db                	xor    %ebx,%ebx
    4ce3:	85 c0                	test   %eax,%eax
    4ce5:	0f 84 35 12 00 00    	je     5f20 <dlmalloc+0x1670>
    4ceb:	ba 01 00 00 00       	mov    $0x1,%edx
    4cf0:	8b 05 7a 70 21 00    	mov    0x21707a(%rip),%eax        # 21bd70 <malloc_global_mutex>
    4cf6:	85 c0                	test   %eax,%eax
    4cf8:	75 f6                	jne    4cf0 <dlmalloc+0x440>
    4cfa:	89 d0                	mov    %edx,%eax
    4cfc:	87 05 6e 70 21 00    	xchg   %eax,0x21706e(%rip)        # 21bd70 <malloc_global_mutex>
    4d02:	85 c0                	test   %eax,%eax
    4d04:	75 ea                	jne    4cf0 <dlmalloc+0x440>
    4d06:	48 85 db             	test   %rbx,%rbx
    4d09:	0f 84 11 12 00 00    	je     5f20 <dlmalloc+0x1670>
    4d0f:	48 8b 15 3a 70 21 00 	mov    0x21703a(%rip),%rdx        # 21bd50 <mparams+0x10>
    4d16:	48 8d 42 57          	lea    0x57(%rdx),%rax
    4d1a:	48 2b 05 6f 6c 21 00 	sub    0x216c6f(%rip),%rax        # 21b990 <_gm_+0x10>
    4d21:	48 f7 da             	neg    %rdx
    4d24:	4c 01 e0             	add    %r12,%rax
    4d27:	48 21 d0             	and    %rdx,%rax
    4d2a:	49 89 c5             	mov    %rax,%r13
    4d2d:	48 b8 fe ff ff ff ff 	movabs $0x7ffffffffffffffe,%rax
    4d34:	ff ff 7f 
    4d37:	49 39 c5             	cmp    %rax,%r13
    4d3a:	0f 86 47 06 00 00    	jbe    5387 <dlmalloc+0xad7>
    4d40:	c7 05 26 70 21 00 00 	movl   $0x0,0x217026(%rip)        # 21bd70 <malloc_global_mutex>
    4d47:	00 00 00 
    4d4a:	48 b8 fe ff ff ff ff 	movabs $0x7ffffffffffffffe,%rax
    4d51:	ff ff 7f 
    4d54:	49 39 c6             	cmp    %rax,%r14
    4d57:	0f 86 bb 0f 00 00    	jbe    5d18 <dlmalloc+0x1468>
    4d5d:	e8 2e ea 00 00       	callq  13790 <__errno_location>
    4d62:	31 db                	xor    %ebx,%ebx
    4d64:	c7 00 0c 00 00 00    	movl   $0xc,(%rax)
    4d6a:	e9 3a fd ff ff       	jmpq   4aa9 <dlmalloc+0x1f9>
    4d6f:	4c 89 e0             	mov    %r12,%rax
    4d72:	4d 89 e2             	mov    %r12,%r10
    4d75:	48 c1 e8 08          	shr    $0x8,%rax
    4d79:	49 f7 da             	neg    %r10
    4d7c:	85 c0                	test   %eax,%eax
    4d7e:	0f 84 4c 04 00 00    	je     51d0 <dlmalloc+0x920>
    4d84:	3d ff ff 00 00       	cmp    $0xffff,%eax
    4d89:	0f 87 11 05 00 00    	ja     52a0 <dlmalloc+0x9f0>
    4d8f:	0f bd c0             	bsr    %eax,%eax
    4d92:	b9 26 00 00 00       	mov    $0x26,%ecx
    4d97:	4c 89 e2             	mov    %r12,%rdx
    4d9a:	83 f0 1f             	xor    $0x1f,%eax
    4d9d:	29 c1                	sub    %eax,%ecx
    4d9f:	48 d3 ea             	shr    %cl,%rdx
    4da2:	b9 1f 00 00 00       	mov    $0x1f,%ecx
    4da7:	83 e2 01             	and    $0x1,%edx
    4daa:	29 c1                	sub    %eax,%ecx
    4dac:	8d 04 4a             	lea    (%rdx,%rcx,2),%eax
    4daf:	49 89 c3             	mov    %rax,%r11
    4db2:	48 8b 84 c6 58 02 00 	mov    0x258(%rsi,%rax,8),%rax
    4db9:	00 
    4dba:	48 85 c0             	test   %rax,%rax
    4dbd:	0f 84 7d 00 00 00    	je     4e40 <dlmalloc+0x590>
    4dc3:	41 83 fb 1f          	cmp    $0x1f,%r11d
    4dc7:	0f 84 d9 10 00 00    	je     5ea6 <dlmalloc+0x15f6>
    4dcd:	44 89 da             	mov    %r11d,%edx
    4dd0:	b9 39 00 00 00       	mov    $0x39,%ecx
    4dd5:	d1 ea                	shr    %edx
    4dd7:	29 d1                	sub    %edx,%ecx
    4dd9:	4d 89 e1             	mov    %r12,%r9
    4ddc:	31 ff                	xor    %edi,%edi
    4dde:	31 db                	xor    %ebx,%ebx
    4de0:	49 d3 e1             	shl    %cl,%r9
    4de3:	eb 06                	jmp    4deb <dlmalloc+0x53b>
    4de5:	0f 1f 00             	nopl   (%rax)
    4de8:	4d 01 c9             	add    %r9,%r9
    4deb:	48 8b 50 08          	mov    0x8(%rax),%rdx
    4def:	48 83 e2 f8          	and    $0xfffffffffffffff8,%rdx
    4df3:	4c 29 e2             	sub    %r12,%rdx
    4df6:	4c 39 d2             	cmp    %r10,%rdx
    4df9:	73 0f                	jae    4e0a <dlmalloc+0x55a>
    4dfb:	48 85 d2             	test   %rdx,%rdx
    4dfe:	0f 84 94 04 00 00    	je     5298 <dlmalloc+0x9e8>
    4e04:	49 89 d2             	mov    %rdx,%r10
    4e07:	48 89 c3             	mov    %rax,%rbx
    4e0a:	48 8b 48 28          	mov    0x28(%rax),%rcx
    4e0e:	4c 89 ca             	mov    %r9,%rdx
    4e11:	48 c1 ea 3f          	shr    $0x3f,%rdx
    4e15:	48 83 c2 04          	add    $0x4,%rdx
    4e19:	48 85 c9             	test   %rcx,%rcx
    4e1c:	48 8b 04 d0          	mov    (%rax,%rdx,8),%rax
    4e20:	74 07                	je     4e29 <dlmalloc+0x579>
    4e22:	48 39 c1             	cmp    %rax,%rcx
    4e25:	48 0f 45 f9          	cmovne %rcx,%rdi
    4e29:	48 85 c0             	test   %rax,%rax
    4e2c:	75 ba                	jne    4de8 <dlmalloc+0x538>
    4e2e:	48 85 ff             	test   %rdi,%rdi
    4e31:	0f 85 05 05 00 00    	jne    533c <dlmalloc+0xa8c>
    4e37:	48 85 db             	test   %rbx,%rbx
    4e3a:	0f 85 fc 04 00 00    	jne    533c <dlmalloc+0xa8c>
    4e40:	b8 fe ff ff ff       	mov    $0xfffffffe,%eax
    4e45:	44 89 d9             	mov    %r11d,%ecx
    4e48:	d3 e0                	shl    %cl,%eax
    4e4a:	44 21 c0             	and    %r8d,%eax
    4e4d:	85 c0                	test   %eax,%eax
    4e4f:	4c 89 d2             	mov    %r10,%rdx
    4e52:	0f 84 b7 fb ff ff    	je     4a0f <dlmalloc+0x15f>
    4e58:	89 c1                	mov    %eax,%ecx
    4e5a:	f7 d9                	neg    %ecx
    4e5c:	21 c8                	and    %ecx,%eax
    4e5e:	f3 0f bc c0          	tzcnt  %eax,%eax
    4e62:	89 c0                	mov    %eax,%eax
    4e64:	48 8b bc c6 58 02 00 	mov    0x258(%rsi,%rax,8),%rdi
    4e6b:	00 
    4e6c:	31 c0                	xor    %eax,%eax
    4e6e:	48 85 ff             	test   %rdi,%rdi
    4e71:	75 10                	jne    4e83 <dlmalloc+0x5d3>
    4e73:	e9 97 fb ff ff       	jmpq   4a0f <dlmalloc+0x15f>
    4e78:	0f 1f 84 00 00 00 00 	nopl   0x0(%rax,%rax,1)
    4e7f:	00 
    4e80:	48 89 cf             	mov    %rcx,%rdi
    4e83:	48 8b 4f 08          	mov    0x8(%rdi),%rcx
    4e87:	48 83 e1 f8          	and    $0xfffffffffffffff8,%rcx
    4e8b:	4c 29 e1             	sub    %r12,%rcx
    4e8e:	48 39 d1             	cmp    %rdx,%rcx
    4e91:	73 06                	jae    4e99 <dlmalloc+0x5e9>
    4e93:	48 89 ca             	mov    %rcx,%rdx
    4e96:	48 89 f8             	mov    %rdi,%rax
    4e99:	48 8b 4f 20          	mov    0x20(%rdi),%rcx
    4e9d:	48 85 c9             	test   %rcx,%rcx
    4ea0:	75 de                	jne    4e80 <dlmalloc+0x5d0>
    4ea2:	48 8b 4f 28          	mov    0x28(%rdi),%rcx
    4ea6:	48 85 c9             	test   %rcx,%rcx
    4ea9:	75 d5                	jne    4e80 <dlmalloc+0x5d0>
    4eab:	48 85 c0             	test   %rax,%rax
    4eae:	0f 84 5b fb ff ff    	je     4a0f <dlmalloc+0x15f>
    4eb4:	48 8b 3d cd 6a 21 00 	mov    0x216acd(%rip),%rdi        # 21b988 <_gm_+0x8>
    4ebb:	48 89 f9             	mov    %rdi,%rcx
    4ebe:	49 89 f9             	mov    %rdi,%r9
    4ec1:	4c 29 e1             	sub    %r12,%rcx
    4ec4:	48 39 d1             	cmp    %rdx,%rcx
    4ec7:	0f 86 49 fb ff ff    	jbe    4a16 <dlmalloc+0x166>
    4ecd:	4c 8b 35 c4 6a 21 00 	mov    0x216ac4(%rip),%r14        # 21b998 <_gm_+0x18>
    4ed4:	4c 39 f0             	cmp    %r14,%rax
    4ed7:	0f 82 13 01 00 00    	jb     4ff0 <dlmalloc+0x740>
    4edd:	4e 8d 1c 20          	lea    (%rax,%r12,1),%r11
    4ee1:	4c 39 d8             	cmp    %r11,%rax
    4ee4:	0f 83 06 01 00 00    	jae    4ff0 <dlmalloc+0x740>
    4eea:	4c 8b 48 18          	mov    0x18(%rax),%r9
    4eee:	4c 8b 68 30          	mov    0x30(%rax),%r13
    4ef2:	4c 39 c8             	cmp    %r9,%rax
    4ef5:	0f 84 43 0b 00 00    	je     5a3e <dlmalloc+0x118e>
    4efb:	48 8b 48 10          	mov    0x10(%rax),%rcx
    4eff:	49 39 ce             	cmp    %rcx,%r14
    4f02:	0f 87 e8 00 00 00    	ja     4ff0 <dlmalloc+0x740>
    4f08:	48 3b 41 18          	cmp    0x18(%rcx),%rax
    4f0c:	0f 85 de 00 00 00    	jne    4ff0 <dlmalloc+0x740>
    4f12:	49 3b 41 10          	cmp    0x10(%r9),%rax
    4f16:	0f 85 d4 00 00 00    	jne    4ff0 <dlmalloc+0x740>
    4f1c:	4c 89 49 18          	mov    %r9,0x18(%rcx)
    4f20:	49 89 49 10          	mov    %rcx,0x10(%r9)
    4f24:	4d 85 ed             	test   %r13,%r13
    4f27:	74 72                	je     4f9b <dlmalloc+0x6eb>
    4f29:	44 8b 50 38          	mov    0x38(%rax),%r10d
    4f2d:	4c 89 d1             	mov    %r10,%rcx
    4f30:	49 83 c2 4a          	add    $0x4a,%r10
    4f34:	4a 3b 44 d6 08       	cmp    0x8(%rsi,%r10,8),%rax
    4f39:	0f 84 a7 0b 00 00    	je     5ae6 <dlmalloc+0x1236>
    4f3f:	48 8b 0d 52 6a 21 00 	mov    0x216a52(%rip),%rcx        # 21b998 <_gm_+0x18>
    4f46:	49 39 cd             	cmp    %rcx,%r13
    4f49:	0f 82 a1 00 00 00    	jb     4ff0 <dlmalloc+0x740>
    4f4f:	49 3b 45 20          	cmp    0x20(%r13),%rax
    4f53:	0f 84 84 0b 00 00    	je     5add <dlmalloc+0x122d>
    4f59:	4d 89 4d 28          	mov    %r9,0x28(%r13)
    4f5d:	4d 85 c9             	test   %r9,%r9
    4f60:	74 39                	je     4f9b <dlmalloc+0x6eb>
    4f62:	49 39 c9             	cmp    %rcx,%r9
    4f65:	0f 82 85 00 00 00    	jb     4ff0 <dlmalloc+0x740>
    4f6b:	4c 8b 40 20          	mov    0x20(%rax),%r8
    4f6f:	4d 89 69 30          	mov    %r13,0x30(%r9)
    4f73:	4d 85 c0             	test   %r8,%r8
    4f76:	74 0d                	je     4f85 <dlmalloc+0x6d5>
    4f78:	49 39 c8             	cmp    %rcx,%r8
